(lp0
(dp1
S'keyPhraseSimilarity'
p2
S'0'
p3
sS'citedPaper'
p4
S'0024356dbbb46b20a2b4df71f7cc03dfa8818139'
p5
sS'abstractSimilarity'
p6
S'0.050103647'
p7
sS'referenceSimilarity'
p8
S'0.05'
p9
sS'label'
p10
S'1'
p11
sS'citingPaper'
p12
S'198b711915429fa55162e749a0b964755b36a62e'
p13
sS'authorSimilarity'
p14
S'0.333333333'
p15
sS'titleSimilarity'
p16
g3
sa(dp17
g2
g3
sg4
S'0024356dbbb46b20a2b4df71f7cc03dfa8818139'
p18
sg6
S'0.070102757'
p19
sg8
S'0.111111111'
p20
sg10
g11
sg12
S'9c1a028299cc2b7f4cbdbe6e19abfc844a6ead6b'
p21
sg14
g11
sg16
S'0.136276341'
p22
sa(dp23
g2
S'0.111111111'
p24
sg4
S'0024356dbbb46b20a2b4df71f7cc03dfa8818139'
p25
sg6
S'0.049375636'
p26
sg8
g3
sg10
g3
sg12
S'ff2d41298dcf295e1661ebf469572f8d799306ab'
p27
sg14
g3
sg16
S'0.069972543'
p28
sa(dp29
g2
g3
sg4
S'0024356dbbb46b20a2b4df71f7cc03dfa8818139'
p30
sg6
S'0.054616893'
p31
sg8
g3
sg10
g3
sg12
S'ba03b36abc133bad0b0692ea904e5a26ffbb8de7'
p32
sg14
g3
sg16
g3
sa(dp33
g2
S'0.111111111'
p34
sg4
S'0024356dbbb46b20a2b4df71f7cc03dfa8818139'
p35
sg6
S'0.036841813'
p36
sg8
g3
sg10
g3
sg12
S'd0c92b106f758b045643a1ea8a82864bece2bfb6'
p37
sg14
g3
sg16
S'0.091939982'
p38
sa(dp39
g2
S'0.111111111'
p40
sg4
S'0024356dbbb46b20a2b4df71f7cc03dfa8818139'
p41
sg6
S'0.059000012'
p42
sg8
g3
sg10
g3
sg12
S'16239b4b9b9215f30e522f01543fe7583033a690'
p43
sg14
g3
sg16
S'0.084579861'
p44
sa(dp45
g2
S'0.111111111'
p46
sg4
S'0024356dbbb46b20a2b4df71f7cc03dfa8818139'
p47
sg6
S'0.088876329'
p48
sg8
g3
sg10
g3
sg12
S'b1b52688d331e5f697c875846a8218e7897ca2c4'
p49
sg14
g3
sg16
S'0.084579861'
p50
sa(dp51
g2
S'0.1'
p52
sg4
S'0024356dbbb46b20a2b4df71f7cc03dfa8818139'
p53
sg6
S'0.037212939'
p54
sg8
g3
sg10
g3
sg12
S'109acf0456a990eb4a0c20daff21382921d5dc5f'
p55
sg14
g3
sg16
S'0.10163067'
p56
sa(dp57
g2
S'0.111111111'
p58
sg4
S'0024356dbbb46b20a2b4df71f7cc03dfa8818139'
p59
sg6
S'0.065314502'
p60
sg8
g3
sg10
g3
sg12
S'66e21c4a46551429b15fd329f6bf0e5440b376c8'
p61
sg14
g3
sg16
S'0.115215543'
p62
sa(dp63
g2
S'0.111111111'
p64
sg4
S'0024356dbbb46b20a2b4df71f7cc03dfa8818139'
p65
sg6
S'0.070963822'
p66
sg8
g3
sg10
g3
sg12
S'b9681cd07ce0590aaaa8bb0f0d417413a0cede9c'
p67
sg14
g3
sg16
g3
sa(dp68
g2
S'0.111111111'
p69
sg4
S'0024356dbbb46b20a2b4df71f7cc03dfa8818139'
p70
sg6
S'0.071727694'
p71
sg8
g3
sg10
g3
sg12
S'a9ec5b5030d34d6cec60f52232999cc4ff9c63c7'
p72
sg14
g3
sg16
S'0.10163067'
p73
sa(dp74
g2
g3
sg4
S'0024356dbbb46b20a2b4df71f7cc03dfa8818139'
p75
sg6
S'0.039898955'
p76
sg8
g3
sg10
g3
sg12
S'107cb16eadc88d4e4f6cab55a41b293e0539dd1e'
p77
sg14
g3
sg16
g3
sa(dp78
g2
g3
sg4
S'0024356dbbb46b20a2b4df71f7cc03dfa8818139'
p79
sg6
S'0.008735742'
p80
sg8
g3
sg10
g3
sg12
S'0aacc118744a102db0782da73b1592d0e567d960'
p81
sg14
g3
sg16
g3
sa(dp82
g2
g3
sg4
S'0024356dbbb46b20a2b4df71f7cc03dfa8818139'
p83
sg6
S'0.033663936'
p84
sg8
g3
sg10
g3
sg12
S'66861e303573478d20dc030812bae465dc85a7cf'
p85
sg14
g3
sg16
g3
sa(dp86
g2
S'0.111111111'
p87
sg4
S'0024356dbbb46b20a2b4df71f7cc03dfa8818139'
p88
sg6
S'0.04404623'
p89
sg8
S'0.032258065'
p90
sg10
g3
sg12
S'67f43d5a3ea4ce89a8b10d1fe55c4a65003cc722'
p91
sg14
g3
sg16
S'0.078744603'
p92
sa(dp93
g2
g3
sg4
S'0024356dbbb46b20a2b4df71f7cc03dfa8818139'
p94
sg6
S'0.056398831'
p95
sg8
g3
sg10
g3
sg12
S'74f61af390292fc197659ae698429df4a2de62df'
p96
sg14
g3
sg16
g3
sa(dp97
g2
S'0.111111111'
p98
sg4
S'0024356dbbb46b20a2b4df71f7cc03dfa8818139'
p99
sg6
S'0.098261002'
p100
sg8
g3
sg10
g3
sg12
S'418bff91d4ce3cad70ee7288568d4c2cac3ac4cc'
p101
sg14
g3
sg16
g3
sa(dp102
g2
g3
sg4
S'0024356dbbb46b20a2b4df71f7cc03dfa8818139'
p103
sg6
S'0.009561552'
p104
sg8
g3
sg10
g3
sg12
S'3e6f0453a175e40430eb530dc4f2e7f2aa386f43'
p105
sg14
g3
sg16
S'0.115215543'
p106
sa(dp107
g2
g3
sg4
S'0024356dbbb46b20a2b4df71f7cc03dfa8818139'
p108
sg6
S'0.04339207'
p109
sg8
g3
sg10
g3
sg12
S'745442386c51d1cedae3a09a14781c941a36b306'
p110
sg14
g3
sg16
S'0.078744603'
p111
sa(dp112
g2
g3
sg4
S'0024356dbbb46b20a2b4df71f7cc03dfa8818139'
p113
sg6
S'0.058476731'
p114
sg8
g3
sg10
g3
sg12
S'ed2e60f027b03bec109d5cd047c9178b8f8259e1'
p115
sg14
g3
sg16
S'0.091939982'
p116
sa(dp117
g2
g3
sg4
S'00fdd251797ea47f7273256df48495dd15516105'
p118
sg6
S'0.044139372'
p119
sg8
g3
sg10
g3
sg12
S'c8d0996ea761a2d002fe075fe2792622ba607ebb'
p120
sg14
g3
sg16
g3
sa(dp121
g2
g3
sg4
S'033b62167e7358c429738092109311af696e9137'
p122
sg6
S'0.095796946'
p123
sg8
g3
sg10
g3
sg12
S'94db635f54d25bdb95edb42185aca93ba53b051b'
p124
sg14
g3
sg16
S'0.059929968'
p125
sa(dp126
g2
g3
sg4
S'04538e8875c78fe880da81eab3e04a99328b1d09'
p127
sg6
S'0.116985028'
p128
sg8
S'0.024390244'
p129
sg10
g3
sg12
S'911d79afaf3ca3e3b9634ec6ed16de450cce0c8c'
p130
sg14
g3
sg16
g3
sa(dp131
g2
g3
sg4
S'04a8d271bc4384dbfbb417bfb625feb01cb44666'
p132
sg6
S'0.254455928'
p133
sg8
S'0.055555556'
p134
sg10
g11
sg12
S'03539fc7a0dada577db3fc9bc2b3c8e091877108'
p135
sg14
g3
sg16
S'0.098679618'
p136
sa(dp137
g2
g3
sg4
S'04a8d271bc4384dbfbb417bfb625feb01cb44666'
p138
sg6
S'0.109282637'
p139
sg8
S'0.0625'
p140
sg10
g3
sg12
S'586fb3f66b786502dd706aa8633d3ed7b66b445f'
p141
sg14
g3
sg16
g3
sa(dp142
g2
g3
sg4
S'04a8d271bc4384dbfbb417bfb625feb01cb44666'
p143
sg6
S'0.011515428'
p144
sg8
g3
sg10
g3
sg12
S'303515056a2a89119924693dcc9dec31007f329e'
p145
sg14
g3
sg16
g3
sa(dp146
g2
g3
sg4
S'04a8d271bc4384dbfbb417bfb625feb01cb44666'
p147
sg6
S'0.056935456'
p148
sg8
g3
sg10
g3
sg12
S'98f4a8d8407f3918f98ee2889347b11191cf411c'
p149
sg14
g3
sg16
g3
sa(dp150
g2
g3
sg4
S'04a8d271bc4384dbfbb417bfb625feb01cb44666'
p151
sg6
S'0.103955667'
p152
sg8
S'0.078947368'
p153
sg10
g3
sg12
S'48f2a5e67c5f5417ea895ec419e49cf3ea443610'
p154
sg14
g3
sg16
S'0.115215543'
p155
sa(dp156
g2
S'0.125'
p157
sg4
S'08240b716eb2d63d78998e738531502283901b89'
p158
sg6
S'0.041485321'
p159
sg8
S'0.016949153'
p160
sg10
g3
sg12
S'3a1175715f1a551cfdf0edbb975e4c2c80eed0e0'
p161
sg14
g3
sg16
g3
sa(dp162
g2
g3
sg4
S'0ea9ec9ada1f86d7107643a8aa41f15796c205f9'
p163
sg6
S'0.030969547'
p164
sg8
g3
sg10
g3
sg12
S'e31eed985ae3274e9036f9eb97fd3810928615c6'
p165
sg14
g3
sg16
g3
sa(dp166
g2
S'0.071428571'
p167
sg4
S'10007391361e17f41aa92f3430c00830dff3be6a'
p168
sg6
S'0.188715001'
p169
sg8
S'0.357142857'
p170
sg10
g11
sg12
S'0cb912b4a208b217c45d57e28fc0f59599f92330'
p171
sg14
S'0.25'
p172
sg16
S'0.150640185'
p173
sa(dp174
g2
S'0.076923077'
p175
sg4
S'10007391361e17f41aa92f3430c00830dff3be6a'
p176
sg6
S'0.183919662'
p177
sg8
S'0.038461538'
p178
sg10
g11
sg12
S'3081ec59edf33adb3bb5fd4ead6698398654c05e'
p179
sg14
g3
sg16
S'0.10163067'
p180
sa(dp181
g2
S'0.153846154'
p182
sg4
S'10007391361e17f41aa92f3430c00830dff3be6a'
p183
sg6
S'0.173728869'
p184
sg8
S'0.085714286'
p185
sg10
g11
sg12
S'180c660a65c17b04a7f933191976280867527747'
p186
sg14
g3
sg16
S'0.225764846'
p187
sa(dp188
g2
S'0.071428571'
p189
sg4
S'10007391361e17f41aa92f3430c00830dff3be6a'
p190
sg6
S'0.192375823'
p191
sg8
S'0.041666667'
p192
sg10
g11
sg12
S'220a47b587d1a5f4a464a04a4e06366059debeba'
p193
sg14
g3
sg16
S'0.519387993'
p194
sa(dp195
g2
S'0.076923077'
p196
sg4
S'10007391361e17f41aa92f3430c00830dff3be6a'
p197
sg6
S'0.040479297'
p198
sg8
S'0.083333333'
p199
sg10
g11
sg12
S'102bbe5219221ebd441ca9466c960c909a4b7130'
p200
sg14
g3
sg16
g3
sa(dp201
g2
S'0.153846154'
p202
sg4
S'10007391361e17f41aa92f3430c00830dff3be6a'
p203
sg6
S'0.073605101'
p204
sg8
S'0.083333333'
p205
sg10
g3
sg12
S'056cddb2e8637997f0fd1fb39d3d0acecfc2ff82'
p206
sg14
g3
sg16
g3
sa(dp207
g2
S'0.071428571'
p208
sg4
S'10007391361e17f41aa92f3430c00830dff3be6a'
p209
sg6
S'0.056467808'
p210
sg8
S'0.086956522'
p211
sg10
g3
sg12
S'33287b031a04952007edf273df9cd30c4d53b3b8'
p212
sg14
g3
sg16
S'0.077347812'
p213
sa(dp214
g2
S'-1'
p215
sg4
S'10007391361e17f41aa92f3430c00830dff3be6a'
p216
sg6
S'0.072636219'
p217
sg8
S'0.111111111'
p218
sg10
g3
sg12
S'8ff36cfbb8ccf3cc18b4eddf2ef20d655f6f9525'
p219
sg14
g3
sg16
g3
sa(dp220
g2
S'0.071428571'
p221
sg4
S'10007391361e17f41aa92f3430c00830dff3be6a'
p222
sg6
S'0.071267111'
p223
sg8
g3
sg10
g3
sg12
S'334d11e0d04ae895bac97a65a64137f21c4f8b80'
p224
sg14
g3
sg16
S'0.112342779'
p225
sa(dp226
g2
S'0.071428571'
p227
sg4
S'10007391361e17f41aa92f3430c00830dff3be6a'
p228
sg6
S'0.047698612'
p229
sg8
g3
sg10
g3
sg12
S'18d04fa815cbc9e7a2eeab189a4d7388cb43b0cb'
p230
sg14
g3
sg16
g3
sa(dp231
g2
g3
sg4
S'10007391361e17f41aa92f3430c00830dff3be6a'
p232
sg6
S'0.018713117'
p233
sg8
S'0.052631579'
p234
sg10
g3
sg12
S'586fb3f66b786502dd706aa8633d3ed7b66b445f'
p235
sg14
g3
sg16
S'0.10163067'
p236
sa(dp237
g2
g3
sg4
S'10007391361e17f41aa92f3430c00830dff3be6a'
p238
sg6
S'0.009785485'
p239
sg8
g3
sg10
g3
sg12
S'069b288576968e21f6b1b9613360b5b8515ec256'
p240
sg14
g3
sg16
g3
sa(dp241
g2
S'0.25'
p242
sg4
S'10007391361e17f41aa92f3430c00830dff3be6a'
p243
sg6
S'0.159461106'
p244
sg8
S'0.055555556'
p245
sg10
g3
sg12
S'2f3d5a1edf8a6ec497ad6eaedeebc287db9a8bca'
p246
sg14
g3
sg16
g3
sa(dp247
g2
g3
sg4
S'10007391361e17f41aa92f3430c00830dff3be6a'
p248
sg6
S'0.16120214'
p249
sg8
S'0.066666667'
p250
sg10
g3
sg12
S'2112dc2a386d958102e4b2311c1daba6d4a83038'
p251
sg14
g3
sg16
S'0.087044468'
p252
sa(dp253
g2
g3
sg4
S'10007391361e17f41aa92f3430c00830dff3be6a'
p254
sg6
S'0.063480105'
p255
sg8
S'0.052631579'
p256
sg10
g3
sg12
S'76a33390d1a144312d0c1122ea707e0487e21c96'
p257
sg14
g3
sg16
g3
sa(dp258
g2
S'0.071428571'
p259
sg4
S'10007391361e17f41aa92f3430c00830dff3be6a'
p260
sg6
S'0.135641975'
p261
sg8
S'0.222222222'
p262
sg10
g3
sg12
S'115c896f53bde675fbd8e43b79a1960f52d5e881'
p263
sg14
g3
sg16
S'0.206136966'
p264
sa(dp265
g2
S'0.071428571'
p266
sg4
S'10007391361e17f41aa92f3430c00830dff3be6a'
p267
sg6
S'0.112797298'
p268
sg8
S'0.047619048'
p269
sg10
g3
sg12
S'024a02a1939c26aec9237dab14f841a639d2fc9a'
p270
sg14
g3
sg16
g3
sa(dp271
g2
g3
sg4
S'10007391361e17f41aa92f3430c00830dff3be6a'
p272
sg6
S'0.028474057'
p273
sg8
S'0.0625'
p274
sg10
g3
sg12
S'c37a1e4e9d453fe6960e20bb3e0c89f16e1f0766'
p275
sg14
g3
sg16
g3
sa(dp276
g2
g3
sg4
S'10007391361e17f41aa92f3430c00830dff3be6a'
p277
sg6
S'0.0320191'
p278
sg8
g3
sg10
g3
sg12
S'1bcab843f26e3a6a5d9cb78f7d8eca34bab3b3fd'
p279
sg14
g3
sg16
g3
sa(dp280
g2
S'0.071428571'
p281
sg4
S'10007391361e17f41aa92f3430c00830dff3be6a'
p282
sg6
S'0.029447332'
p283
sg8
S'0.055555556'
p284
sg10
g3
sg12
S'a41a778ee93381e9bd301bfcaad6538099d40425'
p285
sg14
g3
sg16
g3
sa(dp286
g2
g3
sg4
S'11494bc3a26a930db29901ec4f81b986266d9952'
p287
sg6
S'0.072595865'
p288
sg8
g3
sg10
g11
sg12
S'4fd223b585bab9e0cc1fc156f3cea9fd85f325a5'
p289
sg14
g3
sg16
g3
sa(dp290
g2
g3
sg4
S'11494bc3a26a930db29901ec4f81b986266d9952'
p291
sg6
g3
sg8
g3
sg10
g11
sg12
S'12fba006c9dfd3521ae4e22eec8bae586819d817'
p292
sg14
g3
sg16
g3
sa(dp293
g2
g3
sg4
S'11494bc3a26a930db29901ec4f81b986266d9952'
p294
sg6
g3
sg8
g3
sg10
g3
sg12
S'c4524f0faa48a9f2d0dee97f12b3cbdd34046aff'
p295
sg14
g3
sg16
g3
sa(dp296
g2
S'0.111111111'
p297
sg4
S'11494bc3a26a930db29901ec4f81b986266d9952'
p298
sg6
S'0.231683239'
p299
sg8
S'0.029411765'
p300
sg10
g3
sg12
S'434a15ce9ee8e0fa60a982dc86686b8b1a7dbfae'
p301
sg14
g3
sg16
S'0.150640185'
p302
sa(dp303
g2
g3
sg4
S'11494bc3a26a930db29901ec4f81b986266d9952'
p304
sg6
g3
sg8
g3
sg10
g3
sg12
S'ef816626858b53f2964e67ef19a716330860c2ea'
p305
sg14
g3
sg16
g3
sa(dp306
g2
S'0.285714286'
p307
sg4
S'182dc6bbd40d171a0ab4e7b29ee0964e616da303'
p308
sg6
S'0.12764308'
p309
sg8
S'0.074074074'
p310
sg10
g3
sg12
S'28d44f73c8eb541577b4eb7c969766ef7cfffcae'
p311
sg14
S'0.333333333'
p312
sg16
g3
sa(dp313
g2
S'0.285714286'
p314
sg4
S'182dc6bbd40d171a0ab4e7b29ee0964e616da303'
p315
sg6
S'0.066026425'
p316
sg8
S'0.095238095'
p317
sg10
g3
sg12
S'54ba9b0fae665a8359887fbfd5fe16f2490f9343'
p318
sg14
g3
sg16
S'0.170776113'
p319
sa(dp320
g2
g3
sg4
S'182dc6bbd40d171a0ab4e7b29ee0964e616da303'
p321
sg6
g3
sg8
g3
sg10
g3
sg12
S'697268601bffa1c734f465e5f429873918aaa969'
p322
sg14
g3
sg16
g3
sa(dp323
g2
g3
sg4
S'182dc6bbd40d171a0ab4e7b29ee0964e616da303'
p324
sg6
g3
sg8
g3
sg10
g3
sg12
S'd07db07e9f98e3dd97544bd835619357683fc936'
p325
sg14
g3
sg16
g3
sa(dp326
g2
S'0.111111111'
p327
sg4
S'18d04fa815cbc9e7a2eeab189a4d7388cb43b0cb'
p328
sg6
S'0.075752007'
p329
sg8
S'0.111111111'
p330
sg10
g11
sg12
S'90edb0f07d0c308e5d609b2ba378ae1bf06f104f'
p331
sg14
g3
sg16
S'0.093494775'
p332
sa(dp333
g2
g3
sg4
S'18d04fa815cbc9e7a2eeab189a4d7388cb43b0cb'
p334
sg6
S'0.042744434'
p335
sg8
g3
sg10
g3
sg12
S'5d2ddf59f4abd2980bb14d768be0f96cdd3c5929'
p336
sg14
g3
sg16
S'0.225764846'
p337
sa(dp338
g2
g3
sg4
S'18d04fa815cbc9e7a2eeab189a4d7388cb43b0cb'
p339
sg6
S'0.02845717'
p340
sg8
g3
sg10
g3
sg12
S'b2b0e5d8694658ead22827053ed01f6e50bd3e0e'
p341
sg14
g3
sg16
S'0.087044468'
p342
sa(dp343
g2
g3
sg4
S'1a0a415178d20754418987e312681f3fb0b40257'
p344
sg6
S'0.086840087'
p345
sg8
S'0.0625'
p346
sg10
g11
sg12
S'6feb388081f456f8967e1c975a26f15df56556e1'
p347
sg14
g3
sg16
g3
sa(dp348
g2
g3
sg4
S'1a0a415178d20754418987e312681f3fb0b40257'
p349
sg6
S'0.064674601'
p350
sg8
S'0.075'
p351
sg10
g3
sg12
S'39d20a6e0ff25aa451aff93b2ce11e02facee6b1'
p352
sg14
g3
sg16
S'0.081768041'
p353
sa(dp354
g2
g3
sg4
S'1a0a415178d20754418987e312681f3fb0b40257'
p355
sg6
S'0.062045274'
p356
sg8
S'0.032258065'
p357
sg10
g3
sg12
S'1b9eedb53a6ea00cd139f4996c51cdf312e01442'
p358
sg14
g3
sg16
S'0.093494775'
p359
sa(dp360
g2
S'-1'
p361
sg4
S'1b1eed518d7f0c67874a5e6e018486feb3923732'
p362
sg6
S'-1'
p363
sg8
S'0.115384615'
p364
sg10
g3
sg12
S'567dc4e26ece98e96c2e798ae8acafa5883945a9'
p365
sg14
g3
sg16
S'0.183407827'
p366
sa(dp367
g2
S'-1'
p368
sg4
S'1b1eed518d7f0c67874a5e6e018486feb3923732'
p369
sg6
S'-1'
p370
sg8
S'0.19047619'
p371
sg10
g3
sg12
S'6cd6f5683f71a4f9e24c6faa3f743482ecb2e6ff'
p372
sg14
g3
sg16
S'0.199333263'
p373
sa(dp374
g2
S'-1'
p375
sg4
S'1b1eed518d7f0c67874a5e6e018486feb3923732'
p376
sg6
S'-1'
p377
sg8
S'0.19047619'
p378
sg10
g3
sg12
S'393b0372dd64a3db88a1fe32b71755a7726d2294'
p379
sg14
g3
sg16
S'0.220288151'
p380
sa(dp381
g2
S'-1'
p382
sg4
S'1b1eed518d7f0c67874a5e6e018486feb3923732'
p383
sg6
S'-1'
p384
sg8
S'0.055555556'
p385
sg10
g3
sg12
S'29c34a034f6f35915a141dac98cabf625bea2b3c'
p386
sg14
g3
sg16
g3
sa(dp387
g2
S'-1'
p388
sg4
S'1b1eed518d7f0c67874a5e6e018486feb3923732'
p389
sg6
S'-1'
p390
sg8
S'0.076923077'
p391
sg10
g3
sg12
S'2648926c90f6cc9c9fa2e9590bc9b3df88ac9cd2'
p392
sg14
g3
sg16
S'0.199333263'
p393
sa(dp394
g2
S'-1'
p395
sg4
S'1b1eed518d7f0c67874a5e6e018486feb3923732'
p396
sg6
S'-1'
p397
sg8
g3
sg10
g3
sg12
S'd2e1a04836db23105aebc945521743233a63b8c2'
p398
sg14
g3
sg16
S'0.187933203'
p399
sa(dp400
g2
S'-1'
p401
sg4
S'1b1eed518d7f0c67874a5e6e018486feb3923732'
p402
sg6
S'-1'
p403
sg8
g3
sg10
g3
sg12
S'72cc2d783f7e7858fbc240d813b8c7fd753c70c4'
p404
sg14
g3
sg16
S'0.039184615'
p405
sa(dp406
g2
S'-1'
p407
sg4
S'1b1eed518d7f0c67874a5e6e018486feb3923732'
p408
sg6
S'-1'
p409
sg8
S'0.057142857'
p410
sg10
g3
sg12
S'4c4a95645bb719cb53d668cca3b104e529746377'
p411
sg14
g3
sg16
S'0.16043974'
p412
sa(dp413
g2
S'-1'
p414
sg4
S'1b1eed518d7f0c67874a5e6e018486feb3923732'
p415
sg6
S'-1'
p416
sg8
S'0.033333333'
p417
sg10
g3
sg12
S'2d287f828cc1736f6755bd5c6e75f73a9146c87d'
p418
sg14
g3
sg16
g3
sa(dp419
g2
S'-1'
p420
sg4
S'1b1eed518d7f0c67874a5e6e018486feb3923732'
p421
sg6
S'-1'
p422
sg8
g3
sg10
g3
sg12
S'a07f56a919687e432e92c403d371a9e2d564ef3f'
p423
sg14
g3
sg16
S'0.199333263'
p424
sa(dp425
g2
S'-1'
p426
sg4
S'1b1eed518d7f0c67874a5e6e018486feb3923732'
p427
sg6
S'-1'
p428
sg8
S'0.052631579'
p429
sg10
g3
sg12
S'a6c3dd11950709a41b4b5fdb7edb8f3d37d4c60e'
p430
sg14
g3
sg16
S'0.079702512'
p431
sa(dp432
g2
S'-1'
p433
sg4
S'1b1eed518d7f0c67874a5e6e018486feb3923732'
p434
sg6
S'-1'
p435
sg8
S'0.142857143'
p436
sg10
g3
sg12
S'669a1735c515cf1ae2108d1823e624bd0854a3a0'
p437
sg14
g3
sg16
S'0.441410116'
p438
sa(dp439
g2
S'-1'
p440
sg4
S'1b1eed518d7f0c67874a5e6e018486feb3923732'
p441
sg6
S'-1'
p442
sg8
S'0.125'
p443
sg10
g3
sg12
S'62d8219e6be879d54b5602c90fdbeaff7a78ff74'
p444
sg14
g3
sg16
S'0.199333263'
p445
sa(dp446
g2
S'-1'
p447
sg4
S'1b1eed518d7f0c67874a5e6e018486feb3923732'
p448
sg6
S'-1'
p449
sg8
S'0.041666667'
p450
sg10
g3
sg12
S'ef45ad6f228fcc8b2d05b93749b4e163dce3f528'
p451
sg14
g3
sg16
S'0.199333263'
p452
sa(dp453
g2
S'0.111111111'
p454
sg4
S'1bb9aaeb2b600a4e93e453228ed8844ffd45f6b6'
p455
sg6
S'0.094494507'
p456
sg8
S'0.066666667'
p457
sg10
g11
sg12
S'69dec697bbda636851f02e328c59eb11da4afe01'
p458
sg14
S'0.666666667'
p459
sg16
S'0.08768682'
p460
sa(dp461
g2
S'0.111111111'
p462
sg4
S'1bb9aaeb2b600a4e93e453228ed8844ffd45f6b6'
p463
sg6
S'0.048927356'
p464
sg8
S'0.130434783'
p465
sg10
g3
sg12
S'021eded7ffb6fe9224a41c50ba00aaa31bf29765'
p466
sg14
S'0.25'
p467
sg16
g3
sa(dp468
g2
S'0.111111111'
p469
sg4
S'1bb9aaeb2b600a4e93e453228ed8844ffd45f6b6'
p470
sg6
S'0.081189094'
p471
sg8
S'0.028571429'
p472
sg10
g3
sg12
S'48e222ca4046007c58f425cc05aa31dbbe8f540a'
p473
sg14
g3
sg16
S'0.12735953'
p474
sa(dp475
g2
S'0.111111111'
p476
sg4
S'1bb9aaeb2b600a4e93e453228ed8844ffd45f6b6'
p477
sg6
S'0.045634162'
p478
sg8
S'0.034482759'
p479
sg10
g3
sg12
S'3e459c01bb2282664eca93e7a4e8000a729f1d18'
p480
sg14
g3
sg16
g3
sa(dp481
g2
g3
sg4
S'1bb9aaeb2b600a4e93e453228ed8844ffd45f6b6'
p482
sg6
S'0.054706947'
p483
sg8
S'0.045454545'
p484
sg10
g3
sg12
S'09afa9d5fec24b9b4ea42abf85bf6799d5d918a3'
p485
sg14
g3
sg16
g3
sa(dp486
g2
S'0.111111111'
p487
sg4
S'1bb9aaeb2b600a4e93e453228ed8844ffd45f6b6'
p488
sg6
S'0.063038687'
p489
sg8
S'0.136363636'
p490
sg10
g3
sg12
S'2b014e038dd1e7267c7f7cb7a56b39d21b4f2468'
p491
sg14
g3
sg16
S'0.12735953'
p492
sa(dp493
g2
g3
sg4
S'1bb9aaeb2b600a4e93e453228ed8844ffd45f6b6'
p494
sg6
S'0.03363508'
p495
sg8
g3
sg10
g3
sg12
S'83c3456db7b191429038e5d282859d87aa383ff5'
p496
sg14
g3
sg16
g3
sa(dp497
g2
g3
sg4
S'1bb9aaeb2b600a4e93e453228ed8844ffd45f6b6'
p498
sg6
S'0.037669656'
p499
sg8
g3
sg10
g3
sg12
S'130d02b4767018cafd20fd7ebfb0a374d41e7d52'
p500
sg14
g3
sg16
S'0.12735953'
p501
sa(dp502
g2
g3
sg4
S'24beb987b722d4a25d3157a43000e685aa8f8874'
p503
sg6
S'0.073025951'
p504
sg8
g3
sg10
g11
sg12
S'303df576947198a7029ff384270750bdb8520521'
p505
sg14
g3
sg16
S'0.206136966'
p506
sa(dp507
g2
g3
sg4
S'24beb987b722d4a25d3157a43000e685aa8f8874'
p508
sg6
S'0.163017168'
p509
sg8
S'0.05'
p510
sg10
g3
sg12
S'3787980e3f4c2e0e20a08027ec1eff18b4fd0c0a'
p511
sg14
g3
sg16
S'0.12735953'
p512
sa(dp513
g2
S'-1'
p514
sg4
S'24beb987b722d4a25d3157a43000e685aa8f8874'
p515
sg6
S'-1'
p516
sg8
S'0.055555556'
p517
sg10
g3
sg12
S'c2f34bb9b8fb309b38aeb528877fd7f494f87764'
p518
sg14
g3
sg16
S'0.112342779'
p519
sa(dp520
g2
g3
sg4
S'24beb987b722d4a25d3157a43000e685aa8f8874'
p521
sg6
S'0.045146945'
p522
sg8
S'0.038461538'
p523
sg10
g3
sg12
S'0bd3297f6a794fddd738756ffed41471a61b8e11'
p524
sg14
g3
sg16
g3
sa(dp525
g2
g3
sg4
S'24beb987b722d4a25d3157a43000e685aa8f8874'
p526
sg6
S'0.064060427'
p527
sg8
g3
sg10
g3
sg12
S'99a80fb20dcedcd14d4b8e3c3074cf1a68975a6b'
p528
sg14
g3
sg16
g3
sa(dp529
g2
g3
sg4
S'24beb987b722d4a25d3157a43000e685aa8f8874'
p530
sg6
S'0.072428717'
p531
sg8
S'0.105263158'
p532
sg10
g3
sg12
S'471d97bf60adbdc0931c1cb278486dd9cd37fe51'
p533
sg14
g3
sg16
g3
sa(dp534
g2
g3
sg4
S'24beb987b722d4a25d3157a43000e685aa8f8874'
p535
sg6
S'0.013214565'
p536
sg8
g3
sg10
g3
sg12
S'29899547c993f30a9afcc3514ef55358d45d6b97'
p537
sg14
g3
sg16
g3
sa(dp538
g2
S'0.071428571'
p539
sg4
S'24beb987b722d4a25d3157a43000e685aa8f8874'
p540
sg6
S'0.141236626'
p541
sg8
g3
sg10
g3
sg12
S'4944bd1a531d8580344ed30a1105372d439f3c79'
p542
sg14
g3
sg16
g3
sa(dp543
g2
g3
sg4
S'24beb987b722d4a25d3157a43000e685aa8f8874'
p544
sg6
S'0.039825672'
p545
sg8
S'0.027027027'
p546
sg10
g3
sg12
S'0853a6724aec7814057be29f75b9fe56f3763d07'
p547
sg14
g3
sg16
g3
sa(dp548
g2
S'0.125'
p549
sg4
S'2640913656089380ffdd697b141b838a8f214909'
p550
sg6
S'0.105787535'
p551
sg8
S'0.045454545'
p552
sg10
g11
sg12
S'544a0fa1107df1423db05070182f213053003040'
p553
sg14
S'0.666666667'
p554
sg16
S'0.063354812'
p555
sa(dp556
g2
S'0.111111111'
p557
sg4
S'2640913656089380ffdd697b141b838a8f214909'
p558
sg6
S'0.1260117'
p559
sg8
S'0.08'
p560
sg10
g3
sg12
S'29c7fb312431f77aa369937959f26f292dfa27d6'
p561
sg14
g3
sg16
S'0.201993092'
p562
sa(dp563
g2
S'0.111111111'
p564
sg4
S'2640913656089380ffdd697b141b838a8f214909'
p565
sg6
S'0.021250703'
p566
sg8
S'0.028571429'
p567
sg10
g3
sg12
S'59ed3521300fd9ffe20afadd1ce6d46d4c6606a1'
p568
sg14
g3
sg16
g3
sa(dp569
g2
g3
sg4
S'2640913656089380ffdd697b141b838a8f214909'
p570
sg6
S'0.053008139'
p571
sg8
S'0.12'
p572
sg10
g3
sg12
S'4f410ab5c8b12b34b38421241366ee456bbebab9'
p573
sg14
g3
sg16
S'0.130978051'
p574
sa(dp575
g2
g3
sg4
S'2640913656089380ffdd697b141b838a8f214909'
p576
sg6
S'0.022772339'
p577
sg8
S'0.133333333'
p578
sg10
g3
sg12
S'3cdf3459d3f4fa134ff2924fee9570674bf45bdd'
p579
sg14
g3
sg16
g3
sa(dp580
g2
g3
sg4
S'2640913656089380ffdd697b141b838a8f214909'
p581
sg6
S'0.143218136'
p582
sg8
g3
sg10
g3
sg12
S'31d2eaefe047a4302e0a5dfa090a37b9f1c79699'
p583
sg14
g3
sg16
S'0.23577034'
p584
sa(dp585
g2
g3
sg4
S'265d715727a9c56c0a072ab8da958c11d7f5014e'
p586
sg6
S'0.101099108'
p587
sg8
S'0.033333333'
p588
sg10
g11
sg12
S'32924bbd545430a09969fc700965f9e030c45e67'
p589
sg14
g3
sg16
g3
sa(dp590
g2
g3
sg4
S'265d715727a9c56c0a072ab8da958c11d7f5014e'
p591
sg6
S'0.011258436'
p592
sg8
S'0.037037037'
p593
sg10
g3
sg12
S'480c4b254a1a579669f13259cc475c42b58cff83'
p594
sg14
g3
sg16
g3
sa(dp595
g2
g3
sg4
S'265d715727a9c56c0a072ab8da958c11d7f5014e'
p596
sg6
S'0.07412954'
p597
sg8
g3
sg10
g3
sg12
S'8916b98a82cf9e63919e16e3971627fd5f824841'
p598
sg14
g3
sg16
S'0.093494775'
p599
sa(dp600
g2
S'0.111111111'
p601
sg4
S'265d715727a9c56c0a072ab8da958c11d7f5014e'
p602
sg6
S'0.058000127'
p603
sg8
g3
sg10
g3
sg12
S'960597a6ac49a48ec493442de2027b0f389ebedd'
p604
sg14
g3
sg16
S'0.1683975'
p605
sa(dp606
g2
g3
sg4
S'265d715727a9c56c0a072ab8da958c11d7f5014e'
p607
sg6
S'0.024461483'
p608
sg8
g3
sg10
g3
sg12
S'ad71f1c8e5d35fefcd73a38256799dd444ec2008'
p609
sg14
g3
sg16
S'0.291069102'
p610
sa(dp611
g2
S'0.111111111'
p612
sg4
S'265d715727a9c56c0a072ab8da958c11d7f5014e'
p613
sg6
S'0.054844602'
p614
sg8
S'0.055555556'
p615
sg10
g3
sg12
S'70979b88b7ed402917761faa22da8cae6bb0c9e0'
p616
sg14
g3
sg16
g3
sa(dp617
g2
S'-1'
p618
sg4
S'2911f7ec4eb6200ac2da8db5d0792745dfa2dc4a'
p619
sg6
S'-1'
p620
sg8
g3
sg10
g3
sg12
S'08240b716eb2d63d78998e738531502283901b89'
p621
sg14
g3
sg16
g3
sa(dp622
g2
g3
sg4
S'2c1d3883840074c93996817276d4199b403ef188'
p623
sg6
S'0.103233023'
p624
sg8
g3
sg10
g3
sg12
S'0678c73ff855c93f238538735fcecc1ee6bc8379'
p625
sg14
g3
sg16
S'0.220288151'
p626
sa(dp627
g2
S'0.25'
p628
sg4
S'334d11e0d04ae895bac97a65a64137f21c4f8b80'
p629
sg6
S'0.062724564'
p630
sg8
S'0.210526316'
p631
sg10
g11
sg12
S'18d04fa815cbc9e7a2eeab189a4d7388cb43b0cb'
p632
sg14
g3
sg16
g3
sa(dp633
g2
S'0.111111111'
p634
sg4
S'3764baa7465201f054083d02b58fa75f883c4461'
p635
sg6
S'0.095317202'
p636
sg8
g3
sg10
g11
sg12
S'7decf730e2bce5efe7ea55a9b716a3a27436f16c'
p637
sg14
g3
sg16
S'0.132130069'
p638
sa(dp639
g2
g3
sg4
S'3764baa7465201f054083d02b58fa75f883c4461'
p640
sg6
S'0.194669368'
p641
sg8
g3
sg10
g11
sg12
S'4b633e381951df7d010c3751b42793550e04b7d7'
p642
sg14
g3
sg16
S'0.237903095'
p643
sa(dp644
g2
g3
sg4
S'3764baa7465201f054083d02b58fa75f883c4461'
p645
sg6
S'0.167252041'
p646
sg8
g3
sg10
g11
sg12
S'6e8e2acedc133c7664ad1455f39675d4d07a1017'
p647
sg14
g3
sg16
S'0.119136892'
p648
sa(dp649
g2
g3
sg4
S'3764baa7465201f054083d02b58fa75f883c4461'
p650
sg6
S'0.111819025'
p651
sg8
S'0.030769231'
p652
sg10
g11
sg12
S'2067918ece05f0a6adafaa685799e645d7878ee8'
p653
sg14
g3
sg16
S'0.125366938'
p654
sa(dp655
g2
g3
sg4
S'3764baa7465201f054083d02b58fa75f883c4461'
p656
sg6
S'0.170052829'
p657
sg8
S'0.02173913'
p658
sg10
g11
sg12
S'763a31180898fe7e64f2e682c5b901ef43998872'
p659
sg14
g3
sg16
S'0.184431917'
p660
sa(dp661
g2
g3
sg4
S'3764baa7465201f054083d02b58fa75f883c4461'
p662
sg6
S'0.102272657'
p663
sg8
S'0.05'
p664
sg10
g3
sg12
S'48790b95fbda08e7bedd0dec98dd5921d0f42cfb'
p665
sg14
g3
sg16
S'0.137543605'
p666
sa(dp667
g2
g3
sg4
S'3764baa7465201f054083d02b58fa75f883c4461'
p668
sg6
S'0.034707465'
p669
sg8
g3
sg10
g3
sg12
S'53073cf42228f7e1d23c513eb474c7e599f82c02'
p670
sg14
g3
sg16
g3
sa(dp671
g2
g3
sg4
S'3764baa7465201f054083d02b58fa75f883c4461'
p672
sg6
S'0.064901702'
p673
sg8
g3
sg10
g3
sg12
S'b8f7d6ac7b5b91d09fa01940f3540682e6ec303f'
p674
sg14
g3
sg16
g3
sa(dp675
g2
g3
sg4
S'3764baa7465201f054083d02b58fa75f883c4461'
p676
sg6
S'0.038987081'
p677
sg8
g3
sg10
g3
sg12
S'32a3e0c6afa7c7c55d2508884659455b6b0d0a61'
p678
sg14
g3
sg16
g3
sa(dp679
g2
g3
sg4
S'3764baa7465201f054083d02b58fa75f883c4461'
p680
sg6
S'0.041132817'
p681
sg8
g3
sg10
g3
sg12
S'4274016dfe32971fcb5bb2043b35555f6fcf91c9'
p682
sg14
g3
sg16
S'0.077808944'
p683
sa(dp684
g2
g3
sg4
S'3764baa7465201f054083d02b58fa75f883c4461'
p685
sg6
S'0.097048205'
p686
sg8
S'0.055555556'
p687
sg10
g3
sg12
S'66fd5b0322503edc0c0dff8529cf9f60c6b546a0'
p688
sg14
g3
sg16
g3
sa(dp689
g2
g3
sg4
S'3764baa7465201f054083d02b58fa75f883c4461'
p690
sg6
S'0.094088934'
p691
sg8
S'0.074074074'
p692
sg10
g3
sg12
S'00185e94af48e793072e9aef5eb7b40881a5b8bb'
p693
sg14
g3
sg16
g3
sa(dp694
g2
g3
sg4
S'3764baa7465201f054083d02b58fa75f883c4461'
p695
sg6
S'0.07142681'
p696
sg8
S'0.166666667'
p697
sg10
g3
sg12
S'5ac237da97e1861685073e871c5cee329963a917'
p698
sg14
g3
sg16
g3
sa(dp699
g2
g3
sg4
S'3764baa7465201f054083d02b58fa75f883c4461'
p700
sg6
S'0.122742708'
p701
sg8
S'0.05'
p702
sg10
g3
sg12
S'5c812d543e9de27c2f314f4b677ed10eb0b4c944'
p703
sg14
g3
sg16
g3
sa(dp704
g2
g3
sg4
S'3764baa7465201f054083d02b58fa75f883c4461'
p705
sg6
S'0.025473624'
p706
sg8
S'0.03125'
p707
sg10
g3
sg12
S'2821ad486fd2cb062b268dd5e528bd99d9fa6ce2'
p708
sg14
g3
sg16
g3
sa(dp709
g2
g3
sg4
S'3764baa7465201f054083d02b58fa75f883c4461'
p710
sg6
S'0.084684358'
p711
sg8
S'0.033333333'
p712
sg10
g3
sg12
S'c6357d3f76e2610b43b4ec3db83e4a3371c30323'
p713
sg14
g3
sg16
S'0.093494775'
p714
sa(dp715
g2
g3
sg4
S'3764baa7465201f054083d02b58fa75f883c4461'
p716
sg6
S'0.150656892'
p717
sg8
S'0.057142857'
p718
sg10
g3
sg12
S'649d9c33adba8d3483a34df09462b50a936a092e'
p719
sg14
g3
sg16
S'0.093494775'
p720
sa(dp721
g2
S'0.25'
p722
sg4
S'3a469a88833f9bf69c4d1cb8d5bdad6f8d02b95c'
p723
sg6
S'0.233439262'
p724
sg8
S'0.222222222'
p725
sg10
g11
sg12
S'c205e82ddf7d9bd759cca3e16baa60c49cecf056'
p726
sg14
S'0.333333333'
p727
sg16
S'0.291219419'
p728
sa(dp729
g2
S'0.25'
p730
sg4
S'3a469a88833f9bf69c4d1cb8d5bdad6f8d02b95c'
p731
sg6
S'0.080864072'
p732
sg8
S'0.063492063'
p733
sg10
g11
sg12
S'388c8e6ba7646f46e499dffc00557cfe769a5dda'
p734
sg14
g3
sg16
S'0.105992131'
p735
sa(dp736
g2
S'0.111111111'
p737
sg4
S'3a469a88833f9bf69c4d1cb8d5bdad6f8d02b95c'
p738
sg6
S'0.046438794'
p739
sg8
S'0.052631579'
p740
sg10
g3
sg12
S'2067918ece05f0a6adafaa685799e645d7878ee8'
p741
sg14
g3
sg16
S'0.411207055'
p742
sa(dp743
g2
S'0.111111111'
p744
sg4
S'3a469a88833f9bf69c4d1cb8d5bdad6f8d02b95c'
p745
sg6
S'0.134965825'
p746
sg8
S'0.022727273'
p747
sg10
g3
sg12
S'50c0d8b36fc516b4fc04aa636a62a9f2aee2240e'
p748
sg14
g3
sg16
S'0.291219419'
p749
sa(dp750
g2
g3
sg4
S'3a469a88833f9bf69c4d1cb8d5bdad6f8d02b95c'
p751
sg6
S'0.070953507'
p752
sg8
S'0.153846154'
p753
sg10
g3
sg12
S'ad1181d188f730b7917a95ae452efb48f830c90a'
p754
sg14
g3
sg16
S'0.220288151'
p755
sa(dp756
g2
S'0.111111111'
p757
sg4
S'3a469a88833f9bf69c4d1cb8d5bdad6f8d02b95c'
p758
sg6
S'0.175139714'
p759
sg8
S'0.081081081'
p760
sg10
g3
sg12
S'763a31180898fe7e64f2e682c5b901ef43998872'
p761
sg14
g3
sg16
S'0.260555671'
p762
sa(dp763
g2
S'0.111111111'
p764
sg4
S'3a469a88833f9bf69c4d1cb8d5bdad6f8d02b95c'
p765
sg6
S'0.105137473'
p766
sg8
S'0.105263158'
p767
sg10
g3
sg12
S'6b07b0266cb4cc2ae1c463732032cc11fe2f2e0a'
p768
sg14
g3
sg16
S'0.220288151'
p769
sa(dp770
g2
S'-1'
p771
sg4
S'3b8e7c8220d3883d54960d896a73045f3c70ac17'
p772
sg6
S'-1'
p773
sg8
S'0.0625'
p774
sg10
g11
sg12
S'08dcafc57bd643f8f50ae43d0adb394f28e26ebb'
p775
sg14
g3
sg16
g3
sa(dp776
g2
g3
sg4
S'3b8e7c8220d3883d54960d896a73045f3c70ac17'
p777
sg6
S'0.02652881'
p778
sg8
g3
sg10
g11
sg12
S'3543d7db405647f6b0dd92fa8cb9f3d552259c5f'
p779
sg14
g3
sg16
g3
sa(dp780
g2
g3
sg4
S'3b8e7c8220d3883d54960d896a73045f3c70ac17'
p781
sg6
S'0.085816942'
p782
sg8
S'0.16'
p783
sg10
g11
sg12
S'3fa58a0dcbf7392e02f744a0f729ba8010b7334c'
p784
sg14
g3
sg16
g3
sa(dp785
g2
g3
sg4
S'3b8e7c8220d3883d54960d896a73045f3c70ac17'
p786
sg6
S'0.082281753'
p787
sg8
S'0.033333333'
p788
sg10
g11
sg12
S'7bfbabdc800f70eb4efa60e64b91044aad23c4a8'
p789
sg14
g3
sg16
S'0.069972543'
p790
sa(dp791
g2
g3
sg4
S'3b8e7c8220d3883d54960d896a73045f3c70ac17'
p792
sg6
S'0.067331851'
p793
sg8
g3
sg10
g3
sg12
S'011828e338982905f2693f3572e56fd582b5ac04'
p794
sg14
g3
sg16
g3
sa(dp795
g2
g3
sg4
S'41828fc3dab24784f95e6976e8aaa73f68e1840e'
p796
sg6
S'0.237837841'
p797
sg8
S'0.108108108'
p798
sg10
g11
sg12
S'348a4a34f934692c58751b0284c5cfeb8f0c96f2'
p799
sg14
g3
sg16
g3
sa(dp800
g2
g3
sg4
S'41828fc3dab24784f95e6976e8aaa73f68e1840e'
p801
sg6
S'0.11692592'
p802
sg8
S'0.04'
p803
sg10
g3
sg12
S'1b4aa9377a6e3d717a369bc21e13662c65890b4c'
p804
sg14
g3
sg16
S'0.170776113'
p805
sa(dp806
g2
g3
sg4
S'41828fc3dab24784f95e6976e8aaa73f68e1840e'
p807
sg6
S'0.035503545'
p808
sg8
g3
sg10
g3
sg12
S'd95b049b992682e29f186a7823bebed785993ec9'
p809
sg14
g3
sg16
g3
sa(dp810
g2
g3
sg4
S'41828fc3dab24784f95e6976e8aaa73f68e1840e'
p811
sg6
S'0.09193108'
p812
sg8
S'0.024390244'
p813
sg10
g3
sg12
S'291b0b2b273cbb00039f4f246154053b2341a017'
p814
sg14
g3
sg16
S'0.115215543'
p815
sa(dp816
g2
g3
sg4
S'41828fc3dab24784f95e6976e8aaa73f68e1840e'
p817
sg6
S'0.086667168'
p818
sg8
S'0.025641026'
p819
sg10
g3
sg12
S'7bfbabdc800f70eb4efa60e64b91044aad23c4a8'
p820
sg14
g3
sg16
S'0.260555671'
p821
sa(dp822
g2
g3
sg4
S'41828fc3dab24784f95e6976e8aaa73f68e1840e'
p823
sg6
S'0.081385527'
p824
sg8
S'0.027027027'
p825
sg10
g3
sg12
S'10d21ca7728cb3dd15731accedda9ea711d8a0f4'
p826
sg14
g3
sg16
g3
sa(dp827
g2
g3
sg4
S'41828fc3dab24784f95e6976e8aaa73f68e1840e'
p828
sg6
S'0.216793113'
p829
sg8
S'0.092783505'
p830
sg10
g3
sg12
S'03001cea1ef5aadd0330544acb6fcbaa68825697'
p831
sg14
g3
sg16
S'0.105992131'
p832
sa(dp833
g2
g3
sg4
S'4af182338ee63754d4569c26cb6a5c3bbdd8cf2a'
p834
sg6
S'0.09742134'
p835
sg8
S'0.045454545'
p836
sg10
g11
sg12
S'71c026712cdeee7097f736fc579723c914d6f82d'
p837
sg14
g3
sg16
g3
sa(dp838
g2
g3
sg4
S'4af182338ee63754d4569c26cb6a5c3bbdd8cf2a'
p839
sg6
S'0.070020477'
p840
sg8
g3
sg10
g3
sg12
S'7a1a11271026dbafe81bb1f601da383eb8ecd398'
p841
sg14
g3
sg16
g3
sa(dp842
g2
g3
sg4
S'4af182338ee63754d4569c26cb6a5c3bbdd8cf2a'
p843
sg6
S'0.00657475'
p844
sg8
g3
sg10
g3
sg12
S'd2629414371b1dd0160cb42ad529feb89dc6ea00'
p845
sg14
g3
sg16
S'0.066559247'
p846
sa(dp847
g2
g3
sg4
S'4af182338ee63754d4569c26cb6a5c3bbdd8cf2a'
p848
sg6
S'0.092261472'
p849
sg8
S'0.083333333'
p850
sg10
g3
sg12
S'0872d24316ca0444279e23f1d686be37d9c5294d'
p851
sg14
g3
sg16
S'0.078744603'
p852
sa(dp853
g2
g3
sg4
S'4af182338ee63754d4569c26cb6a5c3bbdd8cf2a'
p854
sg6
S'0.093667631'
p855
sg8
g3
sg10
g3
sg12
S'63799c4850df5a60cbe8763cff9b1ffe5e27ae3c'
p856
sg14
g3
sg16
g3
sa(dp857
g2
g3
sg4
S'4af182338ee63754d4569c26cb6a5c3bbdd8cf2a'
p858
sg6
g3
sg8
g3
sg10
g3
sg12
S'2f2b4cb71794cea7e3e5ded5755615263740eec2'
p859
sg14
g3
sg16
g3
sa(dp860
g2
g3
sg4
S'4af182338ee63754d4569c26cb6a5c3bbdd8cf2a'
p861
sg6
S'0.029156582'
p862
sg8
g3
sg10
g3
sg12
S'6b800696ce3c451fa443061b928d791fa6c375ed'
p863
sg14
g3
sg16
g3
sa(dp864
g2
g3
sg4
S'4af182338ee63754d4569c26cb6a5c3bbdd8cf2a'
p865
sg6
S'0.112111201'
p866
sg8
g3
sg10
g3
sg12
S'28e11a77bf6670984c6f1753ff41ec5046fc040b'
p867
sg14
g3
sg16
g3
sa(dp868
g2
g3
sg4
S'4af182338ee63754d4569c26cb6a5c3bbdd8cf2a'
p869
sg6
S'0.059839632'
p870
sg8
g3
sg10
g3
sg12
S'ebd03c093df7ec30a2a360b377e85b6f00ecb96f'
p871
sg14
g3
sg16
S'0.10163067'
p872
sa(dp873
g2
g3
sg4
S'4af182338ee63754d4569c26cb6a5c3bbdd8cf2a'
p874
sg6
S'0.056090648'
p875
sg8
g3
sg10
g3
sg12
S'38623c0273a0b2cec32fc797aaa99b8aef3c4472'
p876
sg14
g3
sg16
g3
sa(dp877
g2
g3
sg4
S'4af182338ee63754d4569c26cb6a5c3bbdd8cf2a'
p878
sg6
S'0.1724806'
p879
sg8
S'0.157894737'
p880
sg10
g3
sg12
S'24beb987b722d4a25d3157a43000e685aa8f8874'
p881
sg14
g3
sg16
S'0.225764846'
p882
sa(dp883
g2
g3
sg4
S'4b7c8063892ca57131bd71b9c839d970ee8b0226'
p884
sg6
S'0.07975144'
p885
sg8
S'0.0625'
p886
sg10
g11
sg12
S'3a6ab7283f02ebf4f6f33ca82f4da32f479ce9c8'
p887
sg14
g3
sg16
S'0.260555671'
p888
sa(dp889
g2
g3
sg4
S'4b7c8063892ca57131bd71b9c839d970ee8b0226'
p890
sg6
S'0.254924083'
p891
sg8
S'0.130434783'
p892
sg10
g3
sg12
S'82ea0ff74d598b60fad4e9a6737280651870c2b5'
p893
sg14
g3
sg16
S'0.220288151'
p894
sa(dp895
g2
g3
sg4
S'4b7c8063892ca57131bd71b9c839d970ee8b0226'
p896
sg6
S'0.059127048'
p897
sg8
g3
sg10
g3
sg12
S'6190613c9f9544b2dcf0001781a049ddb9cd1f4b'
p898
sg14
g3
sg16
g3
sa(dp899
g2
g3
sg4
S'4b7c8063892ca57131bd71b9c839d970ee8b0226'
p900
sg6
S'0.062349209'
p901
sg8
g3
sg10
g3
sg12
S'438bdd869cc2d43aaceb11268590c5c308e5ff01'
p902
sg14
g3
sg16
g3
sa(dp903
g2
g3
sg4
S'4b7c8063892ca57131bd71b9c839d970ee8b0226'
p904
sg6
S'0.077433384'
p905
sg8
g3
sg10
g3
sg12
S'2c41fb6c7a1297a09a045f8c8f4fbba8800229a3'
p906
sg14
g3
sg16
g3
sa(dp907
g2
g3
sg4
S'4f410ab5c8b12b34b38421241366ee456bbebab9'
p908
sg6
S'0.272319108'
p909
sg8
S'0.48'
p910
sg10
g11
sg12
S'29c7fb312431f77aa369937959f26f292dfa27d6'
p911
sg14
S'0.25'
p912
sg16
S'0.059514396'
p913
sa(dp914
g2
S'0.111111111'
p915
sg4
S'4f410ab5c8b12b34b38421241366ee456bbebab9'
p916
sg6
S'0.155175053'
p917
sg8
S'0.090909091'
p918
sg10
g11
sg12
S'94bd436b5dc2060e1b23c70c16fea26ec56db42a'
p919
sg14
g3
sg16
S'0.068049631'
p920
sa(dp921
g2
g3
sg4
S'4f410ab5c8b12b34b38421241366ee456bbebab9'
p922
sg6
S'0.272319108'
p923
sg8
S'0.48'
p924
sg10
g11
sg12
S'29c7fb312431f77aa369937959f26f292dfa27d6'
p925
sg14
S'0.25'
p926
sg16
S'0.059514396'
p927
sa(dp928
g2
S'0.111111111'
p929
sg4
S'4f410ab5c8b12b34b38421241366ee456bbebab9'
p930
sg6
S'0.155175053'
p931
sg8
S'0.090909091'
p932
sg10
g11
sg12
S'94bd436b5dc2060e1b23c70c16fea26ec56db42a'
p933
sg14
g3
sg16
S'0.068049631'
p934
sa(dp935
g2
g3
sg4
S'4f410ab5c8b12b34b38421241366ee456bbebab9'
p936
sg6
S'0.092625627'
p937
sg8
g3
sg10
g11
sg12
S'32ee75315fd7050bd7411087d9b3c7cf67b82b63'
p938
sg14
S'0.142857143'
p939
sg16
g3
sa(dp940
g2
g3
sg4
S'4f410ab5c8b12b34b38421241366ee456bbebab9'
p941
sg6
S'0.156089528'
p942
sg8
S'0.035087719'
p943
sg10
g11
sg12
S'2418131d18173161b48575839d145091c3178a72'
p944
sg14
g3
sg16
g3
sa(dp945
g2
g3
sg4
S'4f410ab5c8b12b34b38421241366ee456bbebab9'
p946
sg6
S'0.176363556'
p947
sg8
S'0.027027027'
p948
sg10
g11
sg12
S'31d2eaefe047a4302e0a5dfa090a37b9f1c79699'
p949
sg14
g3
sg16
S'0.14976222'
p950
sa(dp951
g2
g3
sg4
S'4f410ab5c8b12b34b38421241366ee456bbebab9'
p952
sg6
S'0.036308444'
p953
sg8
g3
sg10
g11
sg12
S'c543570a5fbee162cc33561576af735204c223d7'
p954
sg14
g3
sg16
g3
sa(dp955
g2
g3
sg4
S'4f410ab5c8b12b34b38421241366ee456bbebab9'
p956
sg6
S'0.077591381'
p957
sg8
S'0.013157895'
p958
sg10
g11
sg12
S'5f19b6288d647972709691780044a3b46dc7feac'
p959
sg14
g3
sg16
g3
sa(dp960
g2
g3
sg4
S'4f410ab5c8b12b34b38421241366ee456bbebab9'
p961
sg6
S'0.12295901'
p962
sg8
S'0.03125'
p963
sg10
g11
sg12
S'6af4613d27395695db7af293eed64d4be4cc67ff'
p964
sg14
g3
sg16
g3
sa(dp965
g2
g3
sg4
S'4f410ab5c8b12b34b38421241366ee456bbebab9'
p966
sg6
S'0.174634918'
p967
sg8
S'0.021276596'
p968
sg10
g11
sg12
S'8fa16fdd1720a4d927d8a062fccb4473e40f3982'
p969
sg14
g3
sg16
S'0.081768041'
p970
sa(dp971
g2
g3
sg4
S'4f410ab5c8b12b34b38421241366ee456bbebab9'
p972
sg6
S'0.176363556'
p973
sg8
S'0.027027027'
p974
sg10
g11
sg12
S'31d2eaefe047a4302e0a5dfa090a37b9f1c79699'
p975
sg14
g3
sg16
S'0.14976222'
p976
sa(dp977
g2
g3
sg4
S'4f410ab5c8b12b34b38421241366ee456bbebab9'
p978
sg6
S'0.051485299'
p979
sg8
S'0.041666667'
p980
sg10
g11
sg12
S'27496a2ee337db705e7c611dea1fd8e6f41437c2'
p981
sg14
g3
sg16
g3
sa(dp982
g2
g3
sg4
S'4f410ab5c8b12b34b38421241366ee456bbebab9'
p983
sg6
S'0.013512482'
p984
sg8
g3
sg10
g11
sg12
S'c50c2ef70639692db342693bd4479f5b85c73f60'
p985
sg14
g3
sg16
g3
sa(dp986
g2
g3
sg4
S'4f410ab5c8b12b34b38421241366ee456bbebab9'
p987
sg6
S'0.083346181'
p988
sg8
g3
sg10
g3
sg12
S'3137cba2cc519166c3fea0259f9d0c9e050bed81'
p989
sg14
g3
sg16
g3
sa(dp990
g2
g3
sg4
S'4f410ab5c8b12b34b38421241366ee456bbebab9'
p991
sg6
S'0.025358216'
p992
sg8
g3
sg10
g3
sg12
S'3fb365b1d1d39ff2dff27cf68a3ecdf8ae5a693b'
p993
sg14
g3
sg16
g3
sa(dp994
g2
g3
sg4
S'4f410ab5c8b12b34b38421241366ee456bbebab9'
p995
sg6
S'0.055137582'
p996
sg8
g3
sg10
g3
sg12
S'02ec888235367184342b9d7295ce99b3da6aea10'
p997
sg14
g3
sg16
g3
sa(dp998
g2
g3
sg4
S'4f410ab5c8b12b34b38421241366ee456bbebab9'
p999
sg6
S'0.046430119'
p1000
sg8
g3
sg10
g3
sg12
S'd161f05ce278d0c66fc44041d4ebacc5110e0fc3'
p1001
sg14
g3
sg16
g3
sa(dp1002
g2
g3
sg4
S'4f410ab5c8b12b34b38421241366ee456bbebab9'
p1003
sg6
S'0.055353119'
p1004
sg8
S'0.032258065'
p1005
sg10
g3
sg12
S'0544b93a08eb4458ad17525aeb831b0b7a150dd1'
p1006
sg14
g3
sg16
g3
sa(dp1007
g2
g3
sg4
S'4f410ab5c8b12b34b38421241366ee456bbebab9'
p1008
sg6
S'0.046066063'
p1009
sg8
g3
sg10
g3
sg12
S'bed155153835dda242d3514346d7973641c5e299'
p1010
sg14
g3
sg16
g3
sa(dp1011
g2
g3
sg4
S'4f410ab5c8b12b34b38421241366ee456bbebab9'
p1012
sg6
S'0.040481438'
p1013
sg8
g3
sg10
g3
sg12
S'5d437f098752798b601e5171311e74184dd05843'
p1014
sg14
g3
sg16
g3
sa(dp1015
g2
g3
sg4
S'4f410ab5c8b12b34b38421241366ee456bbebab9'
p1016
sg6
S'0.020706189'
p1017
sg8
g3
sg10
g3
sg12
S'abba83b5747e98d10ab982df9ae94cc799668f16'
p1018
sg14
g3
sg16
g3
sa(dp1019
g2
g3
sg4
S'4f410ab5c8b12b34b38421241366ee456bbebab9'
p1020
sg6
S'0.013911661'
p1021
sg8
g3
sg10
g3
sg12
S'a5dd230970c90f311f10b9c59283eb4131f4fc79'
p1022
sg14
g3
sg16
g3
sa(dp1023
g2
g3
sg4
S'4f410ab5c8b12b34b38421241366ee456bbebab9'
p1024
sg6
S'0.116671831'
p1025
sg8
g3
sg10
g3
sg12
S'b90196005b0f1eb0953758c16869633d7ca3399d'
p1026
sg14
S'0.111111111'
p1027
sg16
g3
sa(dp1028
g2
g3
sg4
S'4f410ab5c8b12b34b38421241366ee456bbebab9'
p1029
sg6
S'0.156735868'
p1030
sg8
S'0.05'
p1031
sg10
g3
sg12
S'5026d34eb5dd917a416461939ee76c1303055d42'
p1032
sg14
g3
sg16
S'0.073971295'
p1033
sa(dp1034
g2
g3
sg4
S'4f410ab5c8b12b34b38421241366ee456bbebab9'
p1035
sg6
S'0.090399783'
p1036
sg8
g3
sg10
g3
sg12
S'5e45657e0281cff0cdbffd9352b4edb4c47b8304'
p1037
sg14
g3
sg16
g3
sa(dp1038
g2
g3
sg4
S'4f410ab5c8b12b34b38421241366ee456bbebab9'
p1039
sg6
S'0.022341236'
p1040
sg8
g3
sg10
g3
sg12
S'5433d3cd12a6edbe3ec14f8895c7d6f4e4448565'
p1041
sg14
g3
sg16
g3
sa(dp1042
g2
g3
sg4
S'4f410ab5c8b12b34b38421241366ee456bbebab9'
p1043
sg6
S'0.11729842'
p1044
sg8
g3
sg10
g3
sg12
S'12c234d00119e13f087d79e50575c4577d5c74d9'
p1045
sg14
g3
sg16
g3
sa(dp1046
g2
g3
sg4
S'4f410ab5c8b12b34b38421241366ee456bbebab9'
p1047
sg6
S'0.101204267'
p1048
sg8
g3
sg10
g3
sg12
S'15259723242fe1909e7eb7e76cfd245a878f2172'
p1049
sg14
g3
sg16
g3
sa(dp1050
g2
g3
sg4
S'4f410ab5c8b12b34b38421241366ee456bbebab9'
p1051
sg6
S'0.078156553'
p1052
sg8
g3
sg10
g3
sg12
S'723fc3a61e35e3b759fd900caa06141a503c87c9'
p1053
sg14
g3
sg16
g3
sa(dp1054
g2
g3
sg4
S'4f410ab5c8b12b34b38421241366ee456bbebab9'
p1055
sg6
S'0.097045814'
p1056
sg8
g3
sg10
g3
sg12
S'60b5779bed9ae726fc0d65e532655eb131499ad9'
p1057
sg14
S'0.25'
p1058
sg16
S'0.081768041'
p1059
sa(dp1060
g2
g3
sg4
S'4f410ab5c8b12b34b38421241366ee456bbebab9'
p1061
sg6
S'0.115960926'
p1062
sg8
g3
sg10
g3
sg12
S'4815713a6b1f8026430d6fd6a367b51e87014662'
p1063
sg14
g3
sg16
S'0.073971295'
p1064
sa(dp1065
g2
g3
sg4
S'4f410ab5c8b12b34b38421241366ee456bbebab9'
p1066
sg6
S'0.052079796'
p1067
sg8
g3
sg10
g3
sg12
S'a4c9384b9cffcf75213858a4b003b65e48a9331f'
p1068
sg14
g3
sg16
S'0.081768041'
p1069
sa(dp1070
g2
g3
sg4
S'4f410ab5c8b12b34b38421241366ee456bbebab9'
p1071
sg6
S'0.118055672'
p1072
sg8
g3
sg10
g3
sg12
S'4f5cd4c2d81db5c52f952589a8d52bba16962707'
p1073
sg14
g3
sg16
S'0.063354812'
p1074
sa(dp1075
g2
g3
sg4
S'4f410ab5c8b12b34b38421241366ee456bbebab9'
p1076
sg6
g3
sg8
g3
sg10
g3
sg12
S'91e4ba886ce779a6e80a3292ed70c5386c5e86d6'
p1077
sg14
g3
sg16
g3
sa(dp1078
g2
g3
sg4
S'4f410ab5c8b12b34b38421241366ee456bbebab9'
p1079
sg6
S'0.050651461'
p1080
sg8
g3
sg10
g3
sg12
S'4065243ecb62aac56668f3888586af7d2a3311fa'
p1081
sg14
g3
sg16
g3
sa(dp1082
g2
g3
sg4
S'4f410ab5c8b12b34b38421241366ee456bbebab9'
p1083
sg6
S'0.067244723'
p1084
sg8
g3
sg10
g3
sg12
S'12e3151e1231537f25e38144d6350cb09bfb3586'
p1085
sg14
g3
sg16
g3
sa(dp1086
g2
g3
sg4
S'4f410ab5c8b12b34b38421241366ee456bbebab9'
p1087
sg6
S'0.077927888'
p1088
sg8
g3
sg10
g3
sg12
S'995ddfe2e3ed66219881f559db72c1859e229805'
p1089
sg14
g3
sg16
S'0.081768041'
p1090
sa(dp1091
g2
g3
sg4
S'4f410ab5c8b12b34b38421241366ee456bbebab9'
p1092
sg6
S'0.086683122'
p1093
sg8
g3
sg10
g3
sg12
S'262cf4ee38a38033ae44ab9294689f0400697105'
p1094
sg14
g3
sg16
g3
sa(dp1095
g2
g3
sg4
S'4f410ab5c8b12b34b38421241366ee456bbebab9'
p1096
sg6
S'0.089440105'
p1097
sg8
S'0.043478261'
p1098
sg10
g3
sg12
S'cc43ea9cf6e2da181d44acc8aeaabbbed0d52705'
p1099
sg14
g3
sg16
g3
sa(dp1100
g2
g3
sg4
S'4f410ab5c8b12b34b38421241366ee456bbebab9'
p1101
sg6
S'0.024057539'
p1102
sg8
g3
sg10
g3
sg12
S'c0a86ddb0f6060d84577304f1741677b643d128f'
p1103
sg14
g3
sg16
g3
sa(dp1104
g2
g3
sg4
S'4f410ab5c8b12b34b38421241366ee456bbebab9'
p1105
sg6
S'0.090399783'
p1106
sg8
g3
sg10
g3
sg12
S'5e45657e0281cff0cdbffd9352b4edb4c47b8304'
p1107
sg14
g3
sg16
g3
sa(dp1108
g2
g3
sg4
S'4f410ab5c8b12b34b38421241366ee456bbebab9'
p1109
sg6
S'0.077591381'
p1110
sg8
S'0.013157895'
p1111
sg10
g3
sg12
S'5f19b6288d647972709691780044a3b46dc7feac'
p1112
sg14
g3
sg16
g3
sa(dp1113
g2
g3
sg4
S'4f410ab5c8b12b34b38421241366ee456bbebab9'
p1114
sg6
S'0.015749821'
p1115
sg8
g3
sg10
g3
sg12
S'24813a13faa751c334086f5112743091343ccfba'
p1116
sg14
g3
sg16
g3
sa(dp1117
g2
g3
sg4
S'4f410ab5c8b12b34b38421241366ee456bbebab9'
p1118
sg6
S'0.12295901'
p1119
sg8
S'0.03125'
p1120
sg10
g3
sg12
S'6af4613d27395695db7af293eed64d4be4cc67ff'
p1121
sg14
g3
sg16
g3
sa(dp1122
g2
g3
sg4
S'4f410ab5c8b12b34b38421241366ee456bbebab9'
p1123
sg6
S'0.06032857'
p1124
sg8
g3
sg10
g3
sg12
S'00cf902b27676cdc376e26567e70298b96c672a1'
p1125
sg14
S'0.666666667'
p1126
sg16
g3
sa(dp1127
g2
g3
sg4
S'4f410ab5c8b12b34b38421241366ee456bbebab9'
p1128
sg6
S'0.090373033'
p1129
sg8
S'0.027027027'
p1130
sg10
g3
sg12
S'5f126695342ea2bab2aa6eb971563f5d91d00aa0'
p1131
sg14
S'0.666666667'
p1132
sg16
g3
sa(dp1133
g2
g3
sg4
S'4f410ab5c8b12b34b38421241366ee456bbebab9'
p1134
sg6
S'0.086788976'
p1135
sg8
g3
sg10
g3
sg12
S'60b64343b5a514c1368ec1f9779519302d98ef3e'
p1136
sg14
g3
sg16
g3
sa(dp1137
g2
g3
sg4
S'4f410ab5c8b12b34b38421241366ee456bbebab9'
p1138
sg6
S'0.078878741'
p1139
sg8
g3
sg10
g3
sg12
S'2d42d556450281f0ce02a6198ba8fc37bf48abf5'
p1140
sg14
g3
sg16
S'0.081768041'
p1141
sa(dp1142
g2
g3
sg4
S'4f410ab5c8b12b34b38421241366ee456bbebab9'
p1143
sg6
S'0.174634918'
p1144
sg8
S'0.021276596'
p1145
sg10
g3
sg12
S'8fa16fdd1720a4d927d8a062fccb4473e40f3982'
p1146
sg14
g3
sg16
S'0.081768041'
p1147
sa(dp1148
g2
g3
sg4
S'4f410ab5c8b12b34b38421241366ee456bbebab9'
p1149
sg6
S'0.054225082'
p1150
sg8
g3
sg10
g3
sg12
S'e4f3a8e772d8ab592ab99d7be6dafc4e3cfe6fae'
p1151
sg14
g3
sg16
g3
sa(dp1152
g2
g3
sg4
S'4f410ab5c8b12b34b38421241366ee456bbebab9'
p1153
sg6
S'0.064053858'
p1154
sg8
g3
sg10
g3
sg12
S'986ff65ff9fa1c517e0910bbfef9c71b6eeabf79'
p1155
sg14
g3
sg16
g3
sa(dp1156
g2
g3
sg4
S'4f410ab5c8b12b34b38421241366ee456bbebab9'
p1157
sg6
S'0.074810502'
p1158
sg8
g3
sg10
g3
sg12
S'1e9663ce0fefb89b79b013313cd39454d7bb8267'
p1159
sg14
g3
sg16
g3
sa(dp1160
g2
g3
sg4
S'4f410ab5c8b12b34b38421241366ee456bbebab9'
p1161
sg6
S'0.015749821'
p1162
sg8
g3
sg10
g3
sg12
S'24813a13faa751c334086f5112743091343ccfba'
p1163
sg14
g3
sg16
g3
sa(dp1164
g2
g3
sg4
S'4f410ab5c8b12b34b38421241366ee456bbebab9'
p1165
sg6
S'0.07914305'
p1166
sg8
g3
sg10
g3
sg12
S'8f8139b63a2fc0b3ae8413acaef47acd35a356e0'
p1167
sg14
g3
sg16
S'0.073971295'
p1168
sa(dp1169
g2
g3
sg4
S'4f410ab5c8b12b34b38421241366ee456bbebab9'
p1170
sg6
S'0.050645036'
p1171
sg8
g3
sg10
g3
sg12
S'330f705d1da99e6e9cab28db3d881aeffc50a00d'
p1172
sg14
g3
sg16
g3
sa(dp1173
g2
g3
sg4
S'4f410ab5c8b12b34b38421241366ee456bbebab9'
p1174
sg6
S'0.064871935'
p1175
sg8
g3
sg10
g3
sg12
S'037725c55ee3eb2c4b9eb185f16e4187f6188189'
p1176
sg14
g3
sg16
g3
sa(dp1177
g2
g3
sg4
S'4f410ab5c8b12b34b38421241366ee456bbebab9'
p1178
sg6
S'0.040074239'
p1179
sg8
S'0.026315789'
p1180
sg10
g3
sg12
S'7424786c635a51dad861b8888e9c0d23a5856234'
p1181
sg14
g3
sg16
g3
sa(dp1182
g2
g3
sg4
S'4f410ab5c8b12b34b38421241366ee456bbebab9'
p1183
sg6
S'0.026762922'
p1184
sg8
g3
sg10
g3
sg12
S'af5586c3d67a76d3ae51cfa886f77a081ecd88f9'
p1185
sg14
g3
sg16
g3
sa(dp1186
g2
g3
sg4
S'4f410ab5c8b12b34b38421241366ee456bbebab9'
p1187
sg6
S'0.059517777'
p1188
sg8
S'0.022727273'
p1189
sg10
g3
sg12
S'b52fe0b796e4c899624ed3e9d9ea566453156844'
p1190
sg14
g3
sg16
g3
sa(dp1191
g2
g3
sg4
S'4f410ab5c8b12b34b38421241366ee456bbebab9'
p1192
sg6
S'0.126408037'
p1193
sg8
g3
sg10
g3
sg12
S'2a0a4161206d3fb201ca87ee17256d3d770e3fd2'
p1194
sg14
g3
sg16
g3
sa(dp1195
g2
g3
sg4
S'4f410ab5c8b12b34b38421241366ee456bbebab9'
p1196
sg6
S'0.032237753'
p1197
sg8
g3
sg10
g3
sg12
S'b891549fa7274ebc33dc2e0b52de920675b3c9d7'
p1198
sg14
g3
sg16
g3
sa(dp1199
g2
g3
sg4
S'4f410ab5c8b12b34b38421241366ee456bbebab9'
p1200
sg6
S'0.040939339'
p1201
sg8
g3
sg10
g3
sg12
S'4e29406ff005be3de1b2781ef42ed881502bf72c'
p1202
sg14
g3
sg16
g3
sa(dp1203
g2
g3
sg4
S'4f410ab5c8b12b34b38421241366ee456bbebab9'
p1204
sg6
S'0.116162281'
p1205
sg8
g3
sg10
g3
sg12
S'1d4927b26f1bc7ac8a72b7da8c723ca853fcaa72'
p1206
sg14
g3
sg16
g3
sa(dp1207
g2
g3
sg4
S'4f410ab5c8b12b34b38421241366ee456bbebab9'
p1208
sg6
S'0.092533188'
p1209
sg8
g3
sg10
g3
sg12
S'5460589117407a323cae0ea08623ef855d5dca26'
p1210
sg14
g3
sg16
g3
sa(dp1211
g2
g3
sg4
S'4f410ab5c8b12b34b38421241366ee456bbebab9'
p1212
sg6
S'0.021716731'
p1213
sg8
g3
sg10
g3
sg12
S'012d5cc9236a5cb591a30d97b0a01973109b0f07'
p1214
sg14
g3
sg16
g3
sa(dp1215
g2
g3
sg4
S'4f410ab5c8b12b34b38421241366ee456bbebab9'
p1216
sg6
S'0.04871403'
p1217
sg8
g3
sg10
g3
sg12
S'b65762780b95c39a8a8814f47e99b874f4315401'
p1218
sg14
g3
sg16
S'0.14976222'
p1219
sa(dp1220
g2
g3
sg4
S'4f410ab5c8b12b34b38421241366ee456bbebab9'
p1221
sg6
S'0.109087818'
p1222
sg8
g3
sg10
g3
sg12
S'6cd8cae6783b1079a066cf03117aeb970189d093'
p1223
sg14
g3
sg16
g3
sa(dp1224
g2
g3
sg4
S'4f410ab5c8b12b34b38421241366ee456bbebab9'
p1225
sg6
S'0.042344721'
p1226
sg8
g3
sg10
g3
sg12
S'33f4e91b698a5226955e9e6b62741163c4ffd6c1'
p1227
sg14
g3
sg16
g3
sa(dp1228
g2
g3
sg4
S'4f410ab5c8b12b34b38421241366ee456bbebab9'
p1229
sg6
S'0.098854625'
p1230
sg8
S'0.044444444'
p1231
sg10
g3
sg12
S'32fce77f2683c6296e787f319663fe9d2cde2d07'
p1232
sg14
S'0.2'
p1233
sg16
g3
sa(dp1234
g2
g3
sg4
S'4f410ab5c8b12b34b38421241366ee456bbebab9'
p1235
sg6
S'0.020603769'
p1236
sg8
g3
sg10
g3
sg12
S'df62eba3d141d7e24c7e2cd0c142d7e4a415b9a2'
p1237
sg14
g3
sg16
g3
sa(dp1238
g2
g3
sg4
S'4f410ab5c8b12b34b38421241366ee456bbebab9'
p1239
sg6
S'0.010247285'
p1240
sg8
g3
sg10
g3
sg12
S'c2908deec5b09ea4bdfce7ad5e827606ef425ee4'
p1241
sg14
g3
sg16
S'0.073971295'
p1242
sa(dp1243
g2
g3
sg4
S'4f410ab5c8b12b34b38421241366ee456bbebab9'
p1244
sg6
S'0.021683077'
p1245
sg8
g3
sg10
g3
sg12
S'07704a07d924cf7970ea7996afb81c331c5a3673'
p1246
sg14
g3
sg16
g3
sa(dp1247
g2
g3
sg4
S'4f410ab5c8b12b34b38421241366ee456bbebab9'
p1248
sg6
S'0.043261305'
p1249
sg8
g3
sg10
g3
sg12
S'74f904e03903ebfccf7b5de9c345a49712919ab6'
p1250
sg14
g3
sg16
g3
sa(dp1251
g2
g3
sg4
S'4f410ab5c8b12b34b38421241366ee456bbebab9'
p1252
sg6
S'0.029331754'
p1253
sg8
g3
sg10
g3
sg12
S'd1d1004488231e2d26922016f252a85a3dc41388'
p1254
sg14
g3
sg16
g3
sa(dp1255
g2
g3
sg4
S'4f410ab5c8b12b34b38421241366ee456bbebab9'
p1256
sg6
S'0.089858619'
p1257
sg8
g3
sg10
g3
sg12
S'76d3d111d24391a2fe153e16b1a4d120d9bb7c3d'
p1258
sg14
g3
sg16
g3
sa(dp1259
g2
g3
sg4
S'4f410ab5c8b12b34b38421241366ee456bbebab9'
p1260
sg6
S'0.02359686'
p1261
sg8
g3
sg10
g3
sg12
S'0d98d2fc154f60f52da54a9861b75cf67afc8132'
p1262
sg14
g3
sg16
g3
sa(dp1263
g2
g3
sg4
S'4f410ab5c8b12b34b38421241366ee456bbebab9'
p1264
sg6
S'0.056027336'
p1265
sg8
g3
sg10
g3
sg12
S'2b59bbc1ee8a5075e49f0b79f86df357d2ac01e7'
p1266
sg14
g3
sg16
g3
sa(dp1267
g2
g3
sg4
S'4f410ab5c8b12b34b38421241366ee456bbebab9'
p1268
sg6
S'0.055103418'
p1269
sg8
g3
sg10
g3
sg12
S'02234993cfbd7d765f2dba33bfe1c45add91e52d'
p1270
sg14
g3
sg16
g3
sa(dp1271
g2
g3
sg4
S'4f410ab5c8b12b34b38421241366ee456bbebab9'
p1272
sg6
S'0.01161522'
p1273
sg8
g3
sg10
g3
sg12
S'5ceda25a21fbad082b8986794a8e2f5dfc119f0a'
p1274
sg14
g3
sg16
g3
sa(dp1275
g2
g3
sg4
S'4f410ab5c8b12b34b38421241366ee456bbebab9'
p1276
sg6
S'0.051485299'
p1277
sg8
S'0.041666667'
p1278
sg10
g3
sg12
S'27496a2ee337db705e7c611dea1fd8e6f41437c2'
p1279
sg14
g3
sg16
g3
sa(dp1280
g2
g3
sg4
S'4f410ab5c8b12b34b38421241366ee456bbebab9'
p1281
sg6
S'0.141574901'
p1282
sg8
g3
sg10
g3
sg12
S'30701685df2d2ae3d2a0337f33000b0e7288ed68'
p1283
sg14
g3
sg16
g3
sa(dp1284
g2
g3
sg4
S'4f410ab5c8b12b34b38421241366ee456bbebab9'
p1285
sg6
S'0.013512482'
p1286
sg8
g3
sg10
g3
sg12
S'c50c2ef70639692db342693bd4479f5b85c73f60'
p1287
sg14
g3
sg16
g3
sa(dp1288
g2
g3
sg4
S'4f410ab5c8b12b34b38421241366ee456bbebab9'
p1289
sg6
S'0.034609581'
p1290
sg8
g3
sg10
g3
sg12
S'69659e18511c6ce5bf1e617992440e7e630723c1'
p1291
sg14
g3
sg16
g3
sa(dp1292
g2
g3
sg4
S'4f410ab5c8b12b34b38421241366ee456bbebab9'
p1293
sg6
S'0.124910386'
p1294
sg8
S'0.055555556'
p1295
sg10
g3
sg12
S'01c44d9fba739eedea9d4c03e9223014dcdeeb07'
p1296
sg14
S'0.142857143'
p1297
sg16
S'0.296672367'
p1298
sa(dp1299
g2
g3
sg4
S'4f410ab5c8b12b34b38421241366ee456bbebab9'
p1300
sg6
S'0.016766691'
p1301
sg8
g3
sg10
g3
sg12
S'bb6c904eccd9663037c75251712b6da7f6398ae8'
p1302
sg14
g3
sg16
g3
sa(dp1303
g2
g3
sg4
S'4f410ab5c8b12b34b38421241366ee456bbebab9'
p1304
sg6
S'0.038432824'
p1305
sg8
g3
sg10
g3
sg12
S'02aebef93baeef3396f3cb4468a7054067f190c6'
p1306
sg14
g3
sg16
g3
sa(dp1307
g2
g3
sg4
S'4f410ab5c8b12b34b38421241366ee456bbebab9'
p1308
sg6
S'0.060123694'
p1309
sg8
g3
sg10
g3
sg12
S'aca19f94878893caf6c484ba638fe9445b4d6bf4'
p1310
sg14
g3
sg16
g3
sa(dp1311
g2
g3
sg4
S'4f410ab5c8b12b34b38421241366ee456bbebab9'
p1312
sg6
S'0.048129979'
p1313
sg8
g3
sg10
g3
sg12
S'5c983fb27dee4bd4cd42fcde08dbc02f4431e2bc'
p1314
sg14
g3
sg16
S'0.056297158'
p1315
sa(dp1316
g2
g3
sg4
S'4f410ab5c8b12b34b38421241366ee456bbebab9'
p1317
sg6
S'0.032472792'
p1318
sg8
g3
sg10
g3
sg12
S'be3da9f71d3a093ecfcb9df7acd61c2eda437824'
p1319
sg14
g3
sg16
g3
sa(dp1320
g2
g3
sg4
S'4f410ab5c8b12b34b38421241366ee456bbebab9'
p1321
sg6
S'0.041851169'
p1322
sg8
g3
sg10
g3
sg12
S'3df902c59a110127bbe22570f4d97967b7ea7d61'
p1323
sg14
g3
sg16
S'0.162794495'
p1324
sa(dp1325
g2
g3
sg4
S'4f410ab5c8b12b34b38421241366ee456bbebab9'
p1326
sg6
S'0.034946438'
p1327
sg8
g3
sg10
g3
sg12
S'e5c2720dddac18a11da6593a9346a98813e8d9ff'
p1328
sg14
g3
sg16
g3
sa(dp1329
g2
g3
sg4
S'4f410ab5c8b12b34b38421241366ee456bbebab9'
p1330
sg6
S'0.092332004'
p1331
sg8
g3
sg10
g3
sg12
S'ae946b252bf1d58a906935f2f4a8bb7fb9e441f2'
p1332
sg14
g3
sg16
g3
sa(dp1333
g2
g3
sg4
S'4f410ab5c8b12b34b38421241366ee456bbebab9'
p1334
sg6
S'0.040685603'
p1335
sg8
g3
sg10
g3
sg12
S'29b165f82233f6c2e93d31dc274b57adc1da1d48'
p1336
sg14
g3
sg16
S'0.05117103'
p1337
sa(dp1338
g2
g3
sg4
S'4f410ab5c8b12b34b38421241366ee456bbebab9'
p1339
sg6
S'0.03754737'
p1340
sg8
g3
sg10
g3
sg12
S'17da628fd399a11cc727eb49b0424b8f7050e945'
p1341
sg14
g3
sg16
g3
sa(dp1342
g2
g3
sg4
S'4f410ab5c8b12b34b38421241366ee456bbebab9'
p1343
sg6
S'0.072723489'
p1344
sg8
g3
sg10
g3
sg12
S'a94e4fe6f475e047be5dcc9077f445e496240852'
p1345
sg14
g3
sg16
g3
sa(dp1346
g2
g3
sg4
S'4f410ab5c8b12b34b38421241366ee456bbebab9'
p1347
sg6
S'0.083346181'
p1348
sg8
g3
sg10
g3
sg12
S'3137cba2cc519166c3fea0259f9d0c9e050bed81'
p1349
sg14
g3
sg16
g3
sa(dp1350
g2
g3
sg4
S'4f410ab5c8b12b34b38421241366ee456bbebab9'
p1351
sg6
S'0.025358216'
p1352
sg8
g3
sg10
g3
sg12
S'3fb365b1d1d39ff2dff27cf68a3ecdf8ae5a693b'
p1353
sg14
g3
sg16
g3
sa(dp1354
g2
g3
sg4
S'4f410ab5c8b12b34b38421241366ee456bbebab9'
p1355
sg6
S'0.055137582'
p1356
sg8
g3
sg10
g3
sg12
S'02ec888235367184342b9d7295ce99b3da6aea10'
p1357
sg14
g3
sg16
g3
sa(dp1358
g2
g3
sg4
S'4f410ab5c8b12b34b38421241366ee456bbebab9'
p1359
sg6
S'0.046430119'
p1360
sg8
g3
sg10
g3
sg12
S'd161f05ce278d0c66fc44041d4ebacc5110e0fc3'
p1361
sg14
g3
sg16
g3
sa(dp1362
g2
g3
sg4
S'4f410ab5c8b12b34b38421241366ee456bbebab9'
p1363
sg6
S'0.055353119'
p1364
sg8
S'0.032258065'
p1365
sg10
g3
sg12
S'0544b93a08eb4458ad17525aeb831b0b7a150dd1'
p1366
sg14
g3
sg16
g3
sa(dp1367
g2
g3
sg4
S'4f410ab5c8b12b34b38421241366ee456bbebab9'
p1368
sg6
S'0.046066063'
p1369
sg8
g3
sg10
g3
sg12
S'bed155153835dda242d3514346d7973641c5e299'
p1370
sg14
g3
sg16
g3
sa(dp1371
g2
g3
sg4
S'4f410ab5c8b12b34b38421241366ee456bbebab9'
p1372
sg6
S'0.040481438'
p1373
sg8
g3
sg10
g3
sg12
S'5d437f098752798b601e5171311e74184dd05843'
p1374
sg14
g3
sg16
g3
sa(dp1375
g2
g3
sg4
S'4f410ab5c8b12b34b38421241366ee456bbebab9'
p1376
sg6
S'0.020706189'
p1377
sg8
g3
sg10
g3
sg12
S'abba83b5747e98d10ab982df9ae94cc799668f16'
p1378
sg14
g3
sg16
g3
sa(dp1379
g2
g3
sg4
S'4f410ab5c8b12b34b38421241366ee456bbebab9'
p1380
sg6
S'0.013911661'
p1381
sg8
g3
sg10
g3
sg12
S'a5dd230970c90f311f10b9c59283eb4131f4fc79'
p1382
sg14
g3
sg16
g3
sa(dp1383
g2
g3
sg4
S'4f410ab5c8b12b34b38421241366ee456bbebab9'
p1384
sg6
S'0.116671831'
p1385
sg8
g3
sg10
g3
sg12
S'b90196005b0f1eb0953758c16869633d7ca3399d'
p1386
sg14
S'0.111111111'
p1387
sg16
g3
sa(dp1388
g2
g3
sg4
S'4f410ab5c8b12b34b38421241366ee456bbebab9'
p1389
sg6
S'0.156735868'
p1390
sg8
S'0.05'
p1391
sg10
g3
sg12
S'5026d34eb5dd917a416461939ee76c1303055d42'
p1392
sg14
g3
sg16
S'0.073971295'
p1393
sa(dp1394
g2
g3
sg4
S'4f410ab5c8b12b34b38421241366ee456bbebab9'
p1395
sg6
S'0.090399783'
p1396
sg8
g3
sg10
g3
sg12
S'5e45657e0281cff0cdbffd9352b4edb4c47b8304'
p1397
sg14
g3
sg16
g3
sa(dp1398
g2
g3
sg4
S'4f410ab5c8b12b34b38421241366ee456bbebab9'
p1399
sg6
S'0.022341236'
p1400
sg8
g3
sg10
g3
sg12
S'5433d3cd12a6edbe3ec14f8895c7d6f4e4448565'
p1401
sg14
g3
sg16
g3
sa(dp1402
g2
g3
sg4
S'4f410ab5c8b12b34b38421241366ee456bbebab9'
p1403
sg6
S'0.10536435'
p1404
sg8
S'0.03125'
p1405
sg10
g3
sg12
S'3dc2ad926b6c205a86a7ac36b21162807769241c'
p1406
sg14
g3
sg16
S'0.265434455'
p1407
sa(dp1408
g2
g3
sg4
S'4f410ab5c8b12b34b38421241366ee456bbebab9'
p1409
sg6
S'0.11729842'
p1410
sg8
g3
sg10
g3
sg12
S'12c234d00119e13f087d79e50575c4577d5c74d9'
p1411
sg14
g3
sg16
g3
sa(dp1412
g2
g3
sg4
S'4f410ab5c8b12b34b38421241366ee456bbebab9'
p1413
sg6
S'0.081285101'
p1414
sg8
g3
sg10
g3
sg12
S'151ee8aedc97e7a388a8edd704ff13698a7af0b4'
p1415
sg14
S'0.166666667'
p1416
sg16
S'0.081768041'
p1417
sa(dp1418
g2
g3
sg4
S'4f410ab5c8b12b34b38421241366ee456bbebab9'
p1419
sg6
S'0.078156553'
p1420
sg8
g3
sg10
g3
sg12
S'723fc3a61e35e3b759fd900caa06141a503c87c9'
p1421
sg14
g3
sg16
g3
sa(dp1422
g2
g3
sg4
S'4f410ab5c8b12b34b38421241366ee456bbebab9'
p1423
sg6
S'0.115960926'
p1424
sg8
g3
sg10
g3
sg12
S'4815713a6b1f8026430d6fd6a367b51e87014662'
p1425
sg14
g3
sg16
S'0.073971295'
p1426
sa(dp1427
g2
g3
sg4
S'4f410ab5c8b12b34b38421241366ee456bbebab9'
p1428
sg6
S'0.052079796'
p1429
sg8
g3
sg10
g3
sg12
S'a4c9384b9cffcf75213858a4b003b65e48a9331f'
p1430
sg14
g3
sg16
S'0.081768041'
p1431
sa(dp1432
g2
g3
sg4
S'4f410ab5c8b12b34b38421241366ee456bbebab9'
p1433
sg6
S'0.092625627'
p1434
sg8
g3
sg10
g3
sg12
S'32ee75315fd7050bd7411087d9b3c7cf67b82b63'
p1435
sg14
S'0.142857143'
p1436
sg16
g3
sa(dp1437
g2
g3
sg4
S'4f410ab5c8b12b34b38421241366ee456bbebab9'
p1438
sg6
S'0.118055672'
p1439
sg8
g3
sg10
g3
sg12
S'4f5cd4c2d81db5c52f952589a8d52bba16962707'
p1440
sg14
g3
sg16
S'0.063354812'
p1441
sa(dp1442
g2
g3
sg4
S'4f410ab5c8b12b34b38421241366ee456bbebab9'
p1443
sg6
g3
sg8
g3
sg10
g3
sg12
S'91e4ba886ce779a6e80a3292ed70c5386c5e86d6'
p1444
sg14
g3
sg16
g3
sa(dp1445
g2
g3
sg4
S'4f410ab5c8b12b34b38421241366ee456bbebab9'
p1446
sg6
S'0.050651461'
p1447
sg8
g3
sg10
g3
sg12
S'4065243ecb62aac56668f3888586af7d2a3311fa'
p1448
sg14
g3
sg16
g3
sa(dp1449
g2
g3
sg4
S'4f410ab5c8b12b34b38421241366ee456bbebab9'
p1450
sg6
S'0.067244723'
p1451
sg8
g3
sg10
g3
sg12
S'12e3151e1231537f25e38144d6350cb09bfb3586'
p1452
sg14
g3
sg16
g3
sa(dp1453
g2
g3
sg4
S'4f410ab5c8b12b34b38421241366ee456bbebab9'
p1454
sg6
S'0.077927888'
p1455
sg8
g3
sg10
g3
sg12
S'995ddfe2e3ed66219881f559db72c1859e229805'
p1456
sg14
g3
sg16
S'0.081768041'
p1457
sa(dp1458
g2
g3
sg4
S'4f410ab5c8b12b34b38421241366ee456bbebab9'
p1459
sg6
S'0.086683122'
p1460
sg8
g3
sg10
g3
sg12
S'262cf4ee38a38033ae44ab9294689f0400697105'
p1461
sg14
g3
sg16
g3
sa(dp1462
g2
g3
sg4
S'4f410ab5c8b12b34b38421241366ee456bbebab9'
p1463
sg6
S'0.089440105'
p1464
sg8
S'0.043478261'
p1465
sg10
g3
sg12
S'cc43ea9cf6e2da181d44acc8aeaabbbed0d52705'
p1466
sg14
g3
sg16
g3
sa(dp1467
g2
g3
sg4
S'4f410ab5c8b12b34b38421241366ee456bbebab9'
p1468
sg6
S'0.024057539'
p1469
sg8
g3
sg10
g3
sg12
S'c0a86ddb0f6060d84577304f1741677b643d128f'
p1470
sg14
g3
sg16
g3
sa(dp1471
g2
g3
sg4
S'4f410ab5c8b12b34b38421241366ee456bbebab9'
p1472
sg6
S'0.090399783'
p1473
sg8
g3
sg10
g3
sg12
S'5e45657e0281cff0cdbffd9352b4edb4c47b8304'
p1474
sg14
g3
sg16
g3
sa(dp1475
g2
g3
sg4
S'4f410ab5c8b12b34b38421241366ee456bbebab9'
p1476
sg6
S'0.015749821'
p1477
sg8
g3
sg10
g3
sg12
S'24813a13faa751c334086f5112743091343ccfba'
p1478
sg14
g3
sg16
g3
sa(dp1479
g2
g3
sg4
S'4f410ab5c8b12b34b38421241366ee456bbebab9'
p1480
sg6
S'0.06032857'
p1481
sg8
g3
sg10
g3
sg12
S'00cf902b27676cdc376e26567e70298b96c672a1'
p1482
sg14
S'0.666666667'
p1483
sg16
g3
sa(dp1484
g2
g3
sg4
S'4f410ab5c8b12b34b38421241366ee456bbebab9'
p1485
sg6
S'0.090373033'
p1486
sg8
S'0.027027027'
p1487
sg10
g3
sg12
S'5f126695342ea2bab2aa6eb971563f5d91d00aa0'
p1488
sg14
S'0.666666667'
p1489
sg16
g3
sa(dp1490
g2
g3
sg4
S'4f410ab5c8b12b34b38421241366ee456bbebab9'
p1491
sg6
S'0.086788976'
p1492
sg8
g3
sg10
g3
sg12
S'60b64343b5a514c1368ec1f9779519302d98ef3e'
p1493
sg14
g3
sg16
g3
sa(dp1494
g2
g3
sg4
S'4f410ab5c8b12b34b38421241366ee456bbebab9'
p1495
sg6
S'0.078878741'
p1496
sg8
g3
sg10
g3
sg12
S'2d42d556450281f0ce02a6198ba8fc37bf48abf5'
p1497
sg14
g3
sg16
S'0.081768041'
p1498
sa(dp1499
g2
g3
sg4
S'4f410ab5c8b12b34b38421241366ee456bbebab9'
p1500
sg6
S'0.156089528'
p1501
sg8
S'0.035087719'
p1502
sg10
g3
sg12
S'2418131d18173161b48575839d145091c3178a72'
p1503
sg14
g3
sg16
g3
sa(dp1504
g2
g3
sg4
S'4f410ab5c8b12b34b38421241366ee456bbebab9'
p1505
sg6
S'0.054225082'
p1506
sg8
g3
sg10
g3
sg12
S'e4f3a8e772d8ab592ab99d7be6dafc4e3cfe6fae'
p1507
sg14
g3
sg16
g3
sa(dp1508
g2
g3
sg4
S'4f410ab5c8b12b34b38421241366ee456bbebab9'
p1509
sg6
S'0.064053858'
p1510
sg8
g3
sg10
g3
sg12
S'986ff65ff9fa1c517e0910bbfef9c71b6eeabf79'
p1511
sg14
g3
sg16
g3
sa(dp1512
g2
g3
sg4
S'4f410ab5c8b12b34b38421241366ee456bbebab9'
p1513
sg6
S'0.063458284'
p1514
sg8
g3
sg10
g3
sg12
S'00111610254bfb8ec16428501c2ca68dcf817474'
p1515
sg14
g3
sg16
g3
sa(dp1516
g2
g3
sg4
S'4f410ab5c8b12b34b38421241366ee456bbebab9'
p1517
sg6
S'0.051484581'
p1518
sg8
g3
sg10
g3
sg12
S'48a2d2dbb6514f55902139a4f40eb6942f82eef9'
p1519
sg14
g3
sg16
S'0.059514396'
p1520
sa(dp1521
g2
g3
sg4
S'4f410ab5c8b12b34b38421241366ee456bbebab9'
p1522
sg6
S'0.074810502'
p1523
sg8
g3
sg10
g3
sg12
S'1e9663ce0fefb89b79b013313cd39454d7bb8267'
p1524
sg14
g3
sg16
g3
sa(dp1525
g2
g3
sg4
S'4f410ab5c8b12b34b38421241366ee456bbebab9'
p1526
sg6
S'0.015749821'
p1527
sg8
g3
sg10
g3
sg12
S'24813a13faa751c334086f5112743091343ccfba'
p1528
sg14
g3
sg16
g3
sa(dp1529
g2
g3
sg4
S'4f410ab5c8b12b34b38421241366ee456bbebab9'
p1530
sg6
S'0.07914305'
p1531
sg8
g3
sg10
g3
sg12
S'8f8139b63a2fc0b3ae8413acaef47acd35a356e0'
p1532
sg14
g3
sg16
S'0.073971295'
p1533
sa(dp1534
g2
g3
sg4
S'4f410ab5c8b12b34b38421241366ee456bbebab9'
p1535
sg6
S'0.050645036'
p1536
sg8
g3
sg10
g3
sg12
S'330f705d1da99e6e9cab28db3d881aeffc50a00d'
p1537
sg14
g3
sg16
g3
sa(dp1538
g2
g3
sg4
S'4f410ab5c8b12b34b38421241366ee456bbebab9'
p1539
sg6
S'0.064871935'
p1540
sg8
g3
sg10
g3
sg12
S'037725c55ee3eb2c4b9eb185f16e4187f6188189'
p1541
sg14
g3
sg16
g3
sa(dp1542
g2
g3
sg4
S'4f410ab5c8b12b34b38421241366ee456bbebab9'
p1543
sg6
S'0.040074239'
p1544
sg8
S'0.026315789'
p1545
sg10
g3
sg12
S'7424786c635a51dad861b8888e9c0d23a5856234'
p1546
sg14
g3
sg16
g3
sa(dp1547
g2
g3
sg4
S'4f410ab5c8b12b34b38421241366ee456bbebab9'
p1548
sg6
S'0.026762922'
p1549
sg8
g3
sg10
g3
sg12
S'af5586c3d67a76d3ae51cfa886f77a081ecd88f9'
p1550
sg14
g3
sg16
g3
sa(dp1551
g2
g3
sg4
S'4f410ab5c8b12b34b38421241366ee456bbebab9'
p1552
sg6
S'0.059517777'
p1553
sg8
S'0.022727273'
p1554
sg10
g3
sg12
S'b52fe0b796e4c899624ed3e9d9ea566453156844'
p1555
sg14
g3
sg16
g3
sa(dp1556
g2
g3
sg4
S'4f410ab5c8b12b34b38421241366ee456bbebab9'
p1557
sg6
S'0.017955147'
p1558
sg8
g3
sg10
g3
sg12
S'0c042eaf93d775aa77e9e5cea50a639bf18a8e71'
p1559
sg14
g3
sg16
g3
sa(dp1560
g2
g3
sg4
S'4f410ab5c8b12b34b38421241366ee456bbebab9'
p1561
sg6
S'0.126408037'
p1562
sg8
g3
sg10
g3
sg12
S'2a0a4161206d3fb201ca87ee17256d3d770e3fd2'
p1563
sg14
g3
sg16
g3
sa(dp1564
g2
g3
sg4
S'4f410ab5c8b12b34b38421241366ee456bbebab9'
p1565
sg6
S'0.032237753'
p1566
sg8
g3
sg10
g3
sg12
S'b891549fa7274ebc33dc2e0b52de920675b3c9d7'
p1567
sg14
g3
sg16
g3
sa(dp1568
g2
g3
sg4
S'4f410ab5c8b12b34b38421241366ee456bbebab9'
p1569
sg6
S'0.040939339'
p1570
sg8
g3
sg10
g3
sg12
S'4e29406ff005be3de1b2781ef42ed881502bf72c'
p1571
sg14
g3
sg16
g3
sa(dp1572
g2
g3
sg4
S'4f410ab5c8b12b34b38421241366ee456bbebab9'
p1573
sg6
S'0.116162281'
p1574
sg8
g3
sg10
g3
sg12
S'1d4927b26f1bc7ac8a72b7da8c723ca853fcaa72'
p1575
sg14
g3
sg16
g3
sa(dp1576
g2
g3
sg4
S'4f410ab5c8b12b34b38421241366ee456bbebab9'
p1577
sg6
S'0.090971682'
p1578
sg8
g3
sg10
g3
sg12
S'6483f163be4836ae8bd3833f27de9a173753b960'
p1579
sg14
g3
sg16
g3
sa(dp1580
g2
g3
sg4
S'4f410ab5c8b12b34b38421241366ee456bbebab9'
p1581
sg6
S'0.092533188'
p1582
sg8
g3
sg10
g3
sg12
S'5460589117407a323cae0ea08623ef855d5dca26'
p1583
sg14
g3
sg16
g3
sa(dp1584
g2
g3
sg4
S'4f410ab5c8b12b34b38421241366ee456bbebab9'
p1585
sg6
S'0.021716731'
p1586
sg8
g3
sg10
g3
sg12
S'012d5cc9236a5cb591a30d97b0a01973109b0f07'
p1587
sg14
g3
sg16
g3
sa(dp1588
g2
g3
sg4
S'4f410ab5c8b12b34b38421241366ee456bbebab9'
p1589
sg6
S'0.04871403'
p1590
sg8
g3
sg10
g3
sg12
S'b65762780b95c39a8a8814f47e99b874f4315401'
p1591
sg14
g3
sg16
S'0.14976222'
p1592
sa(dp1593
g2
g3
sg4
S'4f410ab5c8b12b34b38421241366ee456bbebab9'
p1594
sg6
S'0.056393424'
p1595
sg8
g3
sg10
g3
sg12
S'740bcf4af21ffff4f85e4b5a54a3e6502e5088fd'
p1596
sg14
g3
sg16
g3
sa(dp1597
g2
g3
sg4
S'4f410ab5c8b12b34b38421241366ee456bbebab9'
p1598
sg6
S'0.109087818'
p1599
sg8
g3
sg10
g3
sg12
S'6cd8cae6783b1079a066cf03117aeb970189d093'
p1600
sg14
g3
sg16
g3
sa(dp1601
g2
g3
sg4
S'4f410ab5c8b12b34b38421241366ee456bbebab9'
p1602
sg6
S'0.042344721'
p1603
sg8
g3
sg10
g3
sg12
S'33f4e91b698a5226955e9e6b62741163c4ffd6c1'
p1604
sg14
g3
sg16
g3
sa(dp1605
g2
g3
sg4
S'4f410ab5c8b12b34b38421241366ee456bbebab9'
p1606
sg6
S'0.098854625'
p1607
sg8
S'0.044444444'
p1608
sg10
g3
sg12
S'32fce77f2683c6296e787f319663fe9d2cde2d07'
p1609
sg14
S'0.2'
p1610
sg16
g3
sa(dp1611
g2
g3
sg4
S'4f410ab5c8b12b34b38421241366ee456bbebab9'
p1612
sg6
S'0.020603769'
p1613
sg8
g3
sg10
g3
sg12
S'df62eba3d141d7e24c7e2cd0c142d7e4a415b9a2'
p1614
sg14
g3
sg16
g3
sa(dp1615
g2
g3
sg4
S'4f410ab5c8b12b34b38421241366ee456bbebab9'
p1616
sg6
S'0.186511127'
p1617
sg8
S'0.023255814'
p1618
sg10
g3
sg12
S'8689346e83d711f9356f4056174d18ad53af1cd8'
p1619
sg14
g3
sg16
g3
sa(dp1620
g2
g3
sg4
S'4f410ab5c8b12b34b38421241366ee456bbebab9'
p1621
sg6
S'0.010247285'
p1622
sg8
g3
sg10
g3
sg12
S'c2908deec5b09ea4bdfce7ad5e827606ef425ee4'
p1623
sg14
g3
sg16
S'0.073971295'
p1624
sa(dp1625
g2
g3
sg4
S'4f410ab5c8b12b34b38421241366ee456bbebab9'
p1626
sg6
S'0.021683077'
p1627
sg8
g3
sg10
g3
sg12
S'07704a07d924cf7970ea7996afb81c331c5a3673'
p1628
sg14
g3
sg16
g3
sa(dp1629
g2
g3
sg4
S'4f410ab5c8b12b34b38421241366ee456bbebab9'
p1630
sg6
S'0.043261305'
p1631
sg8
g3
sg10
g3
sg12
S'74f904e03903ebfccf7b5de9c345a49712919ab6'
p1632
sg14
g3
sg16
g3
sa(dp1633
g2
g3
sg4
S'4f410ab5c8b12b34b38421241366ee456bbebab9'
p1634
sg6
S'0.029331754'
p1635
sg8
g3
sg10
g3
sg12
S'd1d1004488231e2d26922016f252a85a3dc41388'
p1636
sg14
g3
sg16
g3
sa(dp1637
g2
g3
sg4
S'4f410ab5c8b12b34b38421241366ee456bbebab9'
p1638
sg6
S'0.089858619'
p1639
sg8
g3
sg10
g3
sg12
S'76d3d111d24391a2fe153e16b1a4d120d9bb7c3d'
p1640
sg14
g3
sg16
g3
sa(dp1641
g2
g3
sg4
S'4f410ab5c8b12b34b38421241366ee456bbebab9'
p1642
sg6
S'0.02359686'
p1643
sg8
g3
sg10
g3
sg12
S'0d98d2fc154f60f52da54a9861b75cf67afc8132'
p1644
sg14
g3
sg16
g3
sa(dp1645
g2
g3
sg4
S'4f410ab5c8b12b34b38421241366ee456bbebab9'
p1646
sg6
S'0.056027336'
p1647
sg8
g3
sg10
g3
sg12
S'2b59bbc1ee8a5075e49f0b79f86df357d2ac01e7'
p1648
sg14
g3
sg16
g3
sa(dp1649
g2
g3
sg4
S'4f410ab5c8b12b34b38421241366ee456bbebab9'
p1650
sg6
S'0.07591021'
p1651
sg8
g3
sg10
g3
sg12
S'87e79beb7976919a76b912c94ff797126981308c'
p1652
sg14
g3
sg16
g3
sa(dp1653
g2
g3
sg4
S'4f410ab5c8b12b34b38421241366ee456bbebab9'
p1654
sg6
S'0.055103418'
p1655
sg8
g3
sg10
g3
sg12
S'02234993cfbd7d765f2dba33bfe1c45add91e52d'
p1656
sg14
g3
sg16
g3
sa(dp1657
g2
g3
sg4
S'4f410ab5c8b12b34b38421241366ee456bbebab9'
p1658
sg6
S'0.01161522'
p1659
sg8
g3
sg10
g3
sg12
S'5ceda25a21fbad082b8986794a8e2f5dfc119f0a'
p1660
sg14
g3
sg16
g3
sa(dp1661
g2
g3
sg4
S'4f410ab5c8b12b34b38421241366ee456bbebab9'
p1662
sg6
S'0.021399815'
p1663
sg8
g3
sg10
g3
sg12
S'ebff2fb9550baddc15d26f8e0dfa0329f747e562'
p1664
sg14
g3
sg16
g3
sa(dp1665
g2
g3
sg4
S'4f410ab5c8b12b34b38421241366ee456bbebab9'
p1666
sg6
S'0.141574901'
p1667
sg8
g3
sg10
g3
sg12
S'30701685df2d2ae3d2a0337f33000b0e7288ed68'
p1668
sg14
g3
sg16
g3
sa(dp1669
g2
g3
sg4
S'4f410ab5c8b12b34b38421241366ee456bbebab9'
p1670
sg6
S'0.034609581'
p1671
sg8
g3
sg10
g3
sg12
S'69659e18511c6ce5bf1e617992440e7e630723c1'
p1672
sg14
g3
sg16
g3
sa(dp1673
g2
g3
sg4
S'4f410ab5c8b12b34b38421241366ee456bbebab9'
p1674
sg6
S'0.124910386'
p1675
sg8
S'0.055555556'
p1676
sg10
g3
sg12
S'01c44d9fba739eedea9d4c03e9223014dcdeeb07'
p1677
sg14
S'0.142857143'
p1678
sg16
S'0.296672367'
p1679
sa(dp1680
g2
g3
sg4
S'4f410ab5c8b12b34b38421241366ee456bbebab9'
p1681
sg6
S'0.016766691'
p1682
sg8
g3
sg10
g3
sg12
S'bb6c904eccd9663037c75251712b6da7f6398ae8'
p1683
sg14
g3
sg16
g3
sa(dp1684
g2
g3
sg4
S'4f410ab5c8b12b34b38421241366ee456bbebab9'
p1685
sg6
S'0.038432824'
p1686
sg8
g3
sg10
g3
sg12
S'02aebef93baeef3396f3cb4468a7054067f190c6'
p1687
sg14
g3
sg16
g3
sa(dp1688
g2
g3
sg4
S'4f410ab5c8b12b34b38421241366ee456bbebab9'
p1689
sg6
S'0.060123694'
p1690
sg8
g3
sg10
g3
sg12
S'aca19f94878893caf6c484ba638fe9445b4d6bf4'
p1691
sg14
g3
sg16
g3
sa(dp1692
g2
g3
sg4
S'4f410ab5c8b12b34b38421241366ee456bbebab9'
p1693
sg6
S'0.048129979'
p1694
sg8
g3
sg10
g3
sg12
S'5c983fb27dee4bd4cd42fcde08dbc02f4431e2bc'
p1695
sg14
g3
sg16
S'0.056297158'
p1696
sa(dp1697
g2
g3
sg4
S'4f410ab5c8b12b34b38421241366ee456bbebab9'
p1698
sg6
S'0.032472792'
p1699
sg8
g3
sg10
g3
sg12
S'be3da9f71d3a093ecfcb9df7acd61c2eda437824'
p1700
sg14
g3
sg16
g3
sa(dp1701
g2
g3
sg4
S'4f410ab5c8b12b34b38421241366ee456bbebab9'
p1702
sg6
S'0.041851169'
p1703
sg8
g3
sg10
g3
sg12
S'3df902c59a110127bbe22570f4d97967b7ea7d61'
p1704
sg14
g3
sg16
S'0.162794495'
p1705
sa(dp1706
g2
g3
sg4
S'4f410ab5c8b12b34b38421241366ee456bbebab9'
p1707
sg6
S'0.034946438'
p1708
sg8
g3
sg10
g3
sg12
S'e5c2720dddac18a11da6593a9346a98813e8d9ff'
p1709
sg14
g3
sg16
g3
sa(dp1710
g2
g3
sg4
S'4f410ab5c8b12b34b38421241366ee456bbebab9'
p1711
sg6
S'0.092332004'
p1712
sg8
g3
sg10
g3
sg12
S'ae946b252bf1d58a906935f2f4a8bb7fb9e441f2'
p1713
sg14
g3
sg16
g3
sa(dp1714
g2
g3
sg4
S'4f410ab5c8b12b34b38421241366ee456bbebab9'
p1715
sg6
S'0.040685603'
p1716
sg8
g3
sg10
g3
sg12
S'29b165f82233f6c2e93d31dc274b57adc1da1d48'
p1717
sg14
g3
sg16
S'0.05117103'
p1718
sa(dp1719
g2
g3
sg4
S'4f410ab5c8b12b34b38421241366ee456bbebab9'
p1720
sg6
S'0.03754737'
p1721
sg8
g3
sg10
g3
sg12
S'17da628fd399a11cc727eb49b0424b8f7050e945'
p1722
sg14
g3
sg16
g3
sa(dp1723
g2
g3
sg4
S'4f410ab5c8b12b34b38421241366ee456bbebab9'
p1724
sg6
S'0.072723489'
p1725
sg8
g3
sg10
g3
sg12
S'a94e4fe6f475e047be5dcc9077f445e496240852'
p1726
sg14
g3
sg16
g3
sa(dp1727
g2
g3
sg4
S'4f410ab5c8b12b34b38421241366ee456bbebab9'
p1728
sg6
S'0.092329914'
p1729
sg8
S'0.014925373'
p1730
sg10
g3
sg12
S'3731b74985bc465a59eb8fd1588e782c8fdd558b'
p1731
sg14
g3
sg16
S'0.465291532'
p1732
sa(dp1733
g2
g3
sg4
S'4f410ab5c8b12b34b38421241366ee456bbebab9'
p1734
sg6
S'0.123854053'
p1735
sg8
g3
sg10
g3
sg12
S'1e941acf5e3d3339f51b52bcbf940dff1287fc28'
p1736
sg14
g3
sg16
g3
sa(dp1737
g2
g3
sg4
S'4f410ab5c8b12b34b38421241366ee456bbebab9'
p1738
sg6
S'0.10536435'
p1739
sg8
S'0.03125'
p1740
sg10
g3
sg12
S'3dc2ad926b6c205a86a7ac36b21162807769241c'
p1741
sg14
g3
sg16
S'0.265434455'
p1742
sa(dp1743
g2
g3
sg4
S'4f410ab5c8b12b34b38421241366ee456bbebab9'
p1744
sg6
S'0.039940698'
p1745
sg8
S'0.014492754'
p1746
sg10
g3
sg12
S'754d2456d500091d0531c95a2e0c790c0cc50505'
p1747
sg14
g3
sg16
S'0.068049631'
p1748
sa(dp1749
g2
g3
sg4
S'4f410ab5c8b12b34b38421241366ee456bbebab9'
p1750
sg6
S'0.081285101'
p1751
sg8
g3
sg10
g3
sg12
S'151ee8aedc97e7a388a8edd704ff13698a7af0b4'
p1752
sg14
S'0.166666667'
p1753
sg16
S'0.081768041'
p1754
sa(dp1755
g2
g3
sg4
S'4f410ab5c8b12b34b38421241366ee456bbebab9'
p1756
sg6
S'0.123298032'
p1757
sg8
S'0.033333333'
p1758
sg10
g3
sg12
S'7cbace2990e0579c7108b1b87dc3b8076043fd5b'
p1759
sg14
g3
sg16
g3
sa(dp1760
g2
g3
sg4
S'4f410ab5c8b12b34b38421241366ee456bbebab9'
p1761
sg6
S'0.051921004'
p1762
sg8
g3
sg10
g3
sg12
S'f00b7db20c7b65292c4536cc82ad6bdb8e4afd04'
p1763
sg14
g3
sg16
S'0.063354812'
p1764
sa(dp1765
g2
g3
sg4
S'4f410ab5c8b12b34b38421241366ee456bbebab9'
p1766
sg6
S'0.106141361'
p1767
sg8
S'0.051724138'
p1768
sg10
g3
sg12
S'1711adbd0b62a5d564cb69e992dfa80b652ef56b'
p1769
sg14
g3
sg16
g3
sa(dp1770
g2
g3
sg4
S'4f410ab5c8b12b34b38421241366ee456bbebab9'
p1771
sg6
S'0.059615093'
p1772
sg8
g3
sg10
g3
sg12
S'cb847caf4ae0911947aad5b0f32de6aaaf0d5487'
p1773
sg14
g3
sg16
g3
sa(dp1774
g2
g3
sg4
S'4f410ab5c8b12b34b38421241366ee456bbebab9'
p1775
sg6
S'0.036308444'
p1776
sg8
g3
sg10
g3
sg12
S'c543570a5fbee162cc33561576af735204c223d7'
p1777
sg14
g3
sg16
g3
sa(dp1778
g2
g3
sg4
S'4f410ab5c8b12b34b38421241366ee456bbebab9'
p1779
sg6
S'0.06136349'
p1780
sg8
S'0.08'
p1781
sg10
g3
sg12
S'12510c9659c71ce821fe671de5ed7033ba0af31c'
p1782
sg14
g3
sg16
g3
sa(dp1783
g2
g3
sg4
S'4f410ab5c8b12b34b38421241366ee456bbebab9'
p1784
sg6
S'0.064242671'
p1785
sg8
S'0.022727273'
p1786
sg10
g3
sg12
S'1a4ab333a9ba3a93166f349cf26cc97c509c8a8a'
p1787
sg14
g3
sg16
S'0.068049631'
p1788
sa(dp1789
g2
g3
sg4
S'4f410ab5c8b12b34b38421241366ee456bbebab9'
p1790
sg6
S'0.032933002'
p1791
sg8
g3
sg10
g3
sg12
S'2e342660bd637c223db246fa40c3f02b29b741be'
p1792
sg14
g3
sg16
g3
sa(dp1793
g2
g3
sg4
S'4f410ab5c8b12b34b38421241366ee456bbebab9'
p1794
sg6
S'0.049870461'
p1795
sg8
g3
sg10
g3
sg12
S'39418aa59106343b09d0d3018f6cc84255edf56f'
p1796
sg14
g3
sg16
g3
sa(dp1797
g2
g3
sg4
S'4f410ab5c8b12b34b38421241366ee456bbebab9'
p1798
sg6
S'0.071990944'
p1799
sg8
S'0.027027027'
p1800
sg10
g3
sg12
S'895befda94484f0e9f62d90a4056ab06fa26f4a6'
p1801
sg14
g3
sg16
g3
sa(dp1802
g2
g3
sg4
S'4f410ab5c8b12b34b38421241366ee456bbebab9'
p1803
sg6
S'0.126353855'
p1804
sg8
S'0.027777778'
p1805
sg10
g3
sg12
S'080f78fc763a900f9813287d4b0435fffaba1a13'
p1806
sg14
g3
sg16
g3
sa(dp1807
g2
g3
sg4
S'4f410ab5c8b12b34b38421241366ee456bbebab9'
p1808
sg6
S'0.045313975'
p1809
sg8
S'0.04'
p1810
sg10
g3
sg12
S'c8dd9aba190a1e17a27c9e5149f4c99f50893747'
p1811
sg14
g3
sg16
S'0.081768041'
p1812
sa(dp1813
g2
g3
sg4
S'4f410ab5c8b12b34b38421241366ee456bbebab9'
p1814
sg6
S'0.095014995'
p1815
sg8
g3
sg10
g3
sg12
S'8ccdd477d42287461f4e300fffdd2bf271eeb5b1'
p1816
sg14
g3
sg16
g3
sa(dp1817
g2
g3
sg4
S'4f410ab5c8b12b34b38421241366ee456bbebab9'
p1818
sg6
S'0.063458284'
p1819
sg8
g3
sg10
g3
sg12
S'00111610254bfb8ec16428501c2ca68dcf817474'
p1820
sg14
g3
sg16
g3
sa(dp1821
g2
g3
sg4
S'4f410ab5c8b12b34b38421241366ee456bbebab9'
p1822
sg6
S'0.0779931'
p1823
sg8
g3
sg10
g3
sg12
S'2470c5bc0b0a87c2157c9fed152805fa4ca21204'
p1824
sg14
g3
sg16
g3
sa(dp1825
g2
g3
sg4
S'4f410ab5c8b12b34b38421241366ee456bbebab9'
p1826
sg6
S'0.051484581'
p1827
sg8
g3
sg10
g3
sg12
S'48a2d2dbb6514f55902139a4f40eb6942f82eef9'
p1828
sg14
g3
sg16
S'0.059514396'
p1829
sa(dp1830
g2
g3
sg4
S'4f410ab5c8b12b34b38421241366ee456bbebab9'
p1831
sg6
S'0.022483505'
p1832
sg8
g3
sg10
g3
sg12
S'30e69288d6d427da250e395d4341b481d8f600f5'
p1833
sg14
g3
sg16
g3
sa(dp1834
g2
g3
sg4
S'4f410ab5c8b12b34b38421241366ee456bbebab9'
p1835
sg6
S'0.0691169'
p1836
sg8
g3
sg10
g3
sg12
S'49121b3b9bcf7e55046efea91683bb38ab56e6a9'
p1837
sg14
g3
sg16
g3
sa(dp1838
g2
g3
sg4
S'4f410ab5c8b12b34b38421241366ee456bbebab9'
p1839
sg6
S'0.216689824'
p1840
sg8
S'0.107142857'
p1841
sg10
g3
sg12
S'63cb5e89d1e875d3f0813e270e9aabdfaaefdde1'
p1842
sg14
g3
sg16
S'0.073971295'
p1843
sa(dp1844
g2
g3
sg4
S'4f410ab5c8b12b34b38421241366ee456bbebab9'
p1845
sg6
S'0.10152915'
p1846
sg8
g3
sg10
g3
sg12
S'00e5123e8a976e11e1e5a6e68c51af684a25ddbd'
p1847
sg14
g3
sg16
g3
sa(dp1848
g2
g3
sg4
S'4f410ab5c8b12b34b38421241366ee456bbebab9'
p1849
sg6
S'0.017955147'
p1850
sg8
g3
sg10
g3
sg12
S'0c042eaf93d775aa77e9e5cea50a639bf18a8e71'
p1851
sg14
g3
sg16
g3
sa(dp1852
g2
g3
sg4
S'4f410ab5c8b12b34b38421241366ee456bbebab9'
p1853
sg6
S'0.090971682'
p1854
sg8
g3
sg10
g3
sg12
S'6483f163be4836ae8bd3833f27de9a173753b960'
p1855
sg14
g3
sg16
g3
sa(dp1856
g2
g3
sg4
S'4f410ab5c8b12b34b38421241366ee456bbebab9'
p1857
sg6
S'0.056393424'
p1858
sg8
g3
sg10
g3
sg12
S'740bcf4af21ffff4f85e4b5a54a3e6502e5088fd'
p1859
sg14
g3
sg16
g3
sa(dp1860
g2
g3
sg4
S'4f410ab5c8b12b34b38421241366ee456bbebab9'
p1861
sg6
S'0.04896135'
p1862
sg8
g3
sg10
g3
sg12
S'81e96b60befdc97db1b4fb54006e9f40be0a1705'
p1863
sg14
g3
sg16
g3
sa(dp1864
g2
g3
sg4
S'4f410ab5c8b12b34b38421241366ee456bbebab9'
p1865
sg6
S'0.084981661'
p1866
sg8
g3
sg10
g3
sg12
S'6629785cb5c9c96921f97e7a8c56dbe63f80d9ef'
p1867
sg14
g3
sg16
g3
sa(dp1868
g2
g3
sg4
S'4f410ab5c8b12b34b38421241366ee456bbebab9'
p1869
sg6
S'0.186511127'
p1870
sg8
S'0.023255814'
p1871
sg10
g3
sg12
S'8689346e83d711f9356f4056174d18ad53af1cd8'
p1872
sg14
g3
sg16
g3
sa(dp1873
g2
g3
sg4
S'4f410ab5c8b12b34b38421241366ee456bbebab9'
p1874
sg6
S'0.044106406'
p1875
sg8
g3
sg10
g3
sg12
S'8c88fd293ce102e1f8fbed3f2e662ee8de4f45bb'
p1876
sg14
g3
sg16
g3
sa(dp1877
g2
g3
sg4
S'4f410ab5c8b12b34b38421241366ee456bbebab9'
p1878
sg6
S'0.07591021'
p1879
sg8
g3
sg10
g3
sg12
S'87e79beb7976919a76b912c94ff797126981308c'
p1880
sg14
g3
sg16
g3
sa(dp1881
g2
g3
sg4
S'4f410ab5c8b12b34b38421241366ee456bbebab9'
p1882
sg6
S'0.074320714'
p1883
sg8
g3
sg10
g3
sg12
S'095a7ab0e6bdfa54e13ce6875622a0c0e3ca43d7'
p1884
sg14
g3
sg16
g3
sa(dp1885
g2
g3
sg4
S'4f410ab5c8b12b34b38421241366ee456bbebab9'
p1886
sg6
S'0.021399815'
p1887
sg8
g3
sg10
g3
sg12
S'ebff2fb9550baddc15d26f8e0dfa0329f747e562'
p1888
sg14
g3
sg16
g3
sa(dp1889
g2
g3
sg4
S'4f410ab5c8b12b34b38421241366ee456bbebab9'
p1890
sg6
S'0.011622308'
p1891
sg8
g3
sg10
g3
sg12
S'f75e678e5694730a57c51228f1074920110c3fac'
p1892
sg14
g3
sg16
g3
sa(dp1893
g2
g3
sg4
S'4f410ab5c8b12b34b38421241366ee456bbebab9'
p1894
sg6
S'0.03386043'
p1895
sg8
g3
sg10
g3
sg12
S'a78b1c7a80bbc5e132d40bddacfa44ce43773445'
p1896
sg14
g3
sg16
g3
sa(dp1897
g2
g3
sg4
S'4f410ab5c8b12b34b38421241366ee456bbebab9'
p1898
sg6
S'0.092329914'
p1899
sg8
S'0.014925373'
p1900
sg10
g3
sg12
S'3731b74985bc465a59eb8fd1588e782c8fdd558b'
p1901
sg14
g3
sg16
S'0.465291532'
p1902
sa(dp1903
g2
g3
sg4
S'4f410ab5c8b12b34b38421241366ee456bbebab9'
p1904
sg6
S'0.123854053'
p1905
sg8
g3
sg10
g3
sg12
S'1e941acf5e3d3339f51b52bcbf940dff1287fc28'
p1906
sg14
g3
sg16
g3
sa(dp1907
g2
g3
sg4
S'4f410ab5c8b12b34b38421241366ee456bbebab9'
p1908
sg6
S'0.039940698'
p1909
sg8
S'0.014492754'
p1910
sg10
g3
sg12
S'754d2456d500091d0531c95a2e0c790c0cc50505'
p1911
sg14
g3
sg16
S'0.068049631'
p1912
sa(dp1913
g2
g3
sg4
S'4f410ab5c8b12b34b38421241366ee456bbebab9'
p1914
sg6
S'0.101204267'
p1915
sg8
g3
sg10
g3
sg12
S'15259723242fe1909e7eb7e76cfd245a878f2172'
p1916
sg14
g3
sg16
g3
sa(dp1917
g2
g3
sg4
S'4f410ab5c8b12b34b38421241366ee456bbebab9'
p1918
sg6
S'0.123298032'
p1919
sg8
S'0.033333333'
p1920
sg10
g3
sg12
S'7cbace2990e0579c7108b1b87dc3b8076043fd5b'
p1921
sg14
g3
sg16
g3
sa(dp1922
g2
g3
sg4
S'4f410ab5c8b12b34b38421241366ee456bbebab9'
p1923
sg6
S'0.097045814'
p1924
sg8
g3
sg10
g3
sg12
S'60b5779bed9ae726fc0d65e532655eb131499ad9'
p1925
sg14
S'0.25'
p1926
sg16
S'0.081768041'
p1927
sa(dp1928
g2
g3
sg4
S'4f410ab5c8b12b34b38421241366ee456bbebab9'
p1929
sg6
S'0.051921004'
p1930
sg8
g3
sg10
g3
sg12
S'f00b7db20c7b65292c4536cc82ad6bdb8e4afd04'
p1931
sg14
g3
sg16
S'0.063354812'
p1932
sa(dp1933
g2
g3
sg4
S'4f410ab5c8b12b34b38421241366ee456bbebab9'
p1934
sg6
S'0.106141361'
p1935
sg8
S'0.051724138'
p1936
sg10
g3
sg12
S'1711adbd0b62a5d564cb69e992dfa80b652ef56b'
p1937
sg14
g3
sg16
g3
sa(dp1938
g2
g3
sg4
S'4f410ab5c8b12b34b38421241366ee456bbebab9'
p1939
sg6
S'0.059615093'
p1940
sg8
g3
sg10
g3
sg12
S'cb847caf4ae0911947aad5b0f32de6aaaf0d5487'
p1941
sg14
g3
sg16
g3
sa(dp1942
g2
g3
sg4
S'4f410ab5c8b12b34b38421241366ee456bbebab9'
p1943
sg6
S'0.06136349'
p1944
sg8
S'0.08'
p1945
sg10
g3
sg12
S'12510c9659c71ce821fe671de5ed7033ba0af31c'
p1946
sg14
g3
sg16
g3
sa(dp1947
g2
g3
sg4
S'4f410ab5c8b12b34b38421241366ee456bbebab9'
p1948
sg6
S'0.064242671'
p1949
sg8
S'0.022727273'
p1950
sg10
g3
sg12
S'1a4ab333a9ba3a93166f349cf26cc97c509c8a8a'
p1951
sg14
g3
sg16
S'0.068049631'
p1952
sa(dp1953
g2
g3
sg4
S'4f410ab5c8b12b34b38421241366ee456bbebab9'
p1954
sg6
S'0.032933002'
p1955
sg8
g3
sg10
g3
sg12
S'2e342660bd637c223db246fa40c3f02b29b741be'
p1956
sg14
g3
sg16
g3
sa(dp1957
g2
g3
sg4
S'4f410ab5c8b12b34b38421241366ee456bbebab9'
p1958
sg6
S'0.049870461'
p1959
sg8
g3
sg10
g3
sg12
S'39418aa59106343b09d0d3018f6cc84255edf56f'
p1960
sg14
g3
sg16
g3
sa(dp1961
g2
g3
sg4
S'4f410ab5c8b12b34b38421241366ee456bbebab9'
p1962
sg6
S'0.071990944'
p1963
sg8
S'0.027027027'
p1964
sg10
g3
sg12
S'895befda94484f0e9f62d90a4056ab06fa26f4a6'
p1965
sg14
g3
sg16
g3
sa(dp1966
g2
g3
sg4
S'4f410ab5c8b12b34b38421241366ee456bbebab9'
p1967
sg6
S'0.126353855'
p1968
sg8
S'0.027777778'
p1969
sg10
g3
sg12
S'080f78fc763a900f9813287d4b0435fffaba1a13'
p1970
sg14
g3
sg16
g3
sa(dp1971
g2
g3
sg4
S'4f410ab5c8b12b34b38421241366ee456bbebab9'
p1972
sg6
S'0.045313975'
p1973
sg8
S'0.04'
p1974
sg10
g3
sg12
S'c8dd9aba190a1e17a27c9e5149f4c99f50893747'
p1975
sg14
g3
sg16
S'0.081768041'
p1976
sa(dp1977
g2
g3
sg4
S'4f410ab5c8b12b34b38421241366ee456bbebab9'
p1978
sg6
S'0.095014995'
p1979
sg8
g3
sg10
g3
sg12
S'8ccdd477d42287461f4e300fffdd2bf271eeb5b1'
p1980
sg14
g3
sg16
g3
sa(dp1981
g2
g3
sg4
S'4f410ab5c8b12b34b38421241366ee456bbebab9'
p1982
sg6
S'0.0779931'
p1983
sg8
g3
sg10
g3
sg12
S'2470c5bc0b0a87c2157c9fed152805fa4ca21204'
p1984
sg14
g3
sg16
g3
sa(dp1985
g2
g3
sg4
S'4f410ab5c8b12b34b38421241366ee456bbebab9'
p1986
sg6
S'0.022483505'
p1987
sg8
g3
sg10
g3
sg12
S'30e69288d6d427da250e395d4341b481d8f600f5'
p1988
sg14
g3
sg16
g3
sa(dp1989
g2
g3
sg4
S'4f410ab5c8b12b34b38421241366ee456bbebab9'
p1990
sg6
S'0.0691169'
p1991
sg8
g3
sg10
g3
sg12
S'49121b3b9bcf7e55046efea91683bb38ab56e6a9'
p1992
sg14
g3
sg16
g3
sa(dp1993
g2
g3
sg4
S'4f410ab5c8b12b34b38421241366ee456bbebab9'
p1994
sg6
S'0.216689824'
p1995
sg8
S'0.107142857'
p1996
sg10
g3
sg12
S'63cb5e89d1e875d3f0813e270e9aabdfaaefdde1'
p1997
sg14
g3
sg16
S'0.073971295'
p1998
sa(dp1999
g2
g3
sg4
S'4f410ab5c8b12b34b38421241366ee456bbebab9'
p2000
sg6
S'0.10152915'
p2001
sg8
g3
sg10
g3
sg12
S'00e5123e8a976e11e1e5a6e68c51af684a25ddbd'
p2002
sg14
g3
sg16
g3
sa(dp2003
g2
g3
sg4
S'4f410ab5c8b12b34b38421241366ee456bbebab9'
p2004
sg6
S'0.04896135'
p2005
sg8
g3
sg10
g3
sg12
S'81e96b60befdc97db1b4fb54006e9f40be0a1705'
p2006
sg14
g3
sg16
g3
sa(dp2007
g2
g3
sg4
S'4f410ab5c8b12b34b38421241366ee456bbebab9'
p2008
sg6
S'0.084981661'
p2009
sg8
g3
sg10
g3
sg12
S'6629785cb5c9c96921f97e7a8c56dbe63f80d9ef'
p2010
sg14
g3
sg16
g3
sa(dp2011
g2
g3
sg4
S'4f410ab5c8b12b34b38421241366ee456bbebab9'
p2012
sg6
S'0.044106406'
p2013
sg8
g3
sg10
g3
sg12
S'8c88fd293ce102e1f8fbed3f2e662ee8de4f45bb'
p2014
sg14
g3
sg16
g3
sa(dp2015
g2
g3
sg4
S'4f410ab5c8b12b34b38421241366ee456bbebab9'
p2016
sg6
S'0.074320714'
p2017
sg8
g3
sg10
g3
sg12
S'095a7ab0e6bdfa54e13ce6875622a0c0e3ca43d7'
p2018
sg14
g3
sg16
g3
sa(dp2019
g2
g3
sg4
S'4f410ab5c8b12b34b38421241366ee456bbebab9'
p2020
sg6
S'0.011622308'
p2021
sg8
g3
sg10
g3
sg12
S'f75e678e5694730a57c51228f1074920110c3fac'
p2022
sg14
g3
sg16
g3
sa(dp2023
g2
g3
sg4
S'4f410ab5c8b12b34b38421241366ee456bbebab9'
p2024
sg6
S'0.03386043'
p2025
sg8
g3
sg10
g3
sg12
S'a78b1c7a80bbc5e132d40bddacfa44ce43773445'
p2026
sg14
g3
sg16
g3
sa(dp2027
g2
g3
sg4
S'5211c32fb5849a14855a91a7ab16cfb83483cc1d'
p2028
sg6
S'0.155484303'
p2029
sg8
g3
sg10
g11
sg12
S'1bf2791b7247da960ddb76b78417fd3ab09a2971'
p2030
sg14
g3
sg16
g3
sa(dp2031
g2
g3
sg4
S'5211c32fb5849a14855a91a7ab16cfb83483cc1d'
p2032
sg6
S'0.098098753'
p2033
sg8
g3
sg10
g3
sg12
S'6feb388081f456f8967e1c975a26f15df56556e1'
p2034
sg14
g3
sg16
g3
sa(dp2035
g2
g3
sg4
S'5211c32fb5849a14855a91a7ab16cfb83483cc1d'
p2036
sg6
S'0.086035457'
p2037
sg8
g3
sg10
g3
sg12
S'7207c31fa99b7e18198e9d43bc54d1ee0547b898'
p2038
sg14
g3
sg16
S'0.145874391'
p2039
sa(dp2040
g2
g3
sg4
S'5211c32fb5849a14855a91a7ab16cfb83483cc1d'
p2041
sg6
S'0.074495646'
p2042
sg8
g3
sg10
g3
sg12
S'1b9eedb53a6ea00cd139f4996c51cdf312e01442'
p2043
sg14
g3
sg16
S'0.077808944'
p2044
sa(dp2045
g2
S'0.111111111'
p2046
sg4
S'5b31e43f8b0490779d8013e0705ae4df8f0488c9'
p2047
sg6
S'0.209619804'
p2048
sg8
S'0.285714286'
p2049
sg10
g11
sg12
S'e60967934286f5d4c9f54a9020f7bfb25a130e35'
p2050
sg14
g3
sg16
S'0.295267555'
p2051
sa(dp2052
g2
g3
sg4
S'5b31e43f8b0490779d8013e0705ae4df8f0488c9'
p2053
sg6
S'0.066319747'
p2054
sg8
S'0.027777778'
p2055
sg10
g3
sg12
S'0c98d39127f334abe0e5915dbe9fdd00a9390917'
p2056
sg14
g3
sg16
g3
sa(dp2057
g2
g3
sg4
S'5b31e43f8b0490779d8013e0705ae4df8f0488c9'
p2058
sg6
S'0.091294363'
p2059
sg8
S'0.071428571'
p2060
sg10
g3
sg12
S'021eded7ffb6fe9224a41c50ba00aaa31bf29765'
p2061
sg14
g3
sg16
S'0.295267555'
p2062
sa(dp2063
g2
S'0.111111111'
p2064
sg4
S'5b31e43f8b0490779d8013e0705ae4df8f0488c9'
p2065
sg6
S'0.134603854'
p2066
sg8
S'0.023809524'
p2067
sg10
g3
sg12
S'9fc6060b6e009447f6d18019e61be1c64726a213'
p2068
sg14
g3
sg16
S'0.344642141'
p2069
sa(dp2070
g2
g3
sg4
S'5b31e43f8b0490779d8013e0705ae4df8f0488c9'
p2071
sg6
S'0.039953123'
p2072
sg8
S'0.021276596'
p2073
sg10
g3
sg12
S'56f2edaa75456c9d90f5afd470962a589d32466b'
p2074
sg14
g3
sg16
g3
sa(dp2075
g2
g3
sg4
S'5b31e43f8b0490779d8013e0705ae4df8f0488c9'
p2076
sg6
S'0.044182113'
p2077
sg8
S'0.19047619'
p2078
sg10
g3
sg12
S'0304e94f44032066f01e34d8add0fa47429a3fcb'
p2079
sg14
g3
sg16
g3
sa(dp2080
g2
g3
sg4
S'5b31e43f8b0490779d8013e0705ae4df8f0488c9'
p2081
sg6
S'0.117948604'
p2082
sg8
S'0.027777778'
p2083
sg10
g3
sg12
S'1ee55e541fca327d265cf0796dca13ca2cf2926e'
p2084
sg14
g3
sg16
S'0.344642141'
p2085
sa(dp2086
g2
g3
sg4
S'5b31e43f8b0490779d8013e0705ae4df8f0488c9'
p2087
sg6
S'0.209529432'
p2088
sg8
S'0.022727273'
p2089
sg10
g3
sg12
S'e0d1429717d6be45b64b66de28fd918d8cbe0355'
p2090
sg14
g3
sg16
S'0.344642141'
p2091
sa(dp2092
g2
g3
sg4
S'5b31e43f8b0490779d8013e0705ae4df8f0488c9'
p2093
sg6
S'0.047215959'
p2094
sg8
S'0.015625'
p2095
sg10
g3
sg12
S'5388cdf31fb45266daaec625c28992726efedd28'
p2096
sg14
g3
sg16
g3
sa(dp2097
g2
S'0.111111111'
p2098
sg4
S'5f9623a2959117dc05f2af3b961fd035a3f22d41'
p2099
sg6
S'0.059154746'
p2100
sg8
g3
sg10
g3
sg12
S'227f124ff2b28ae9732127562bda691532e34087'
p2101
sg14
g3
sg16
S'0.093494775'
p2102
sa(dp2103
g2
S'0.111111111'
p2104
sg4
S'5f9623a2959117dc05f2af3b961fd035a3f22d41'
p2105
sg6
S'0.123969521'
p2106
sg8
S'0.176470588'
p2107
sg10
g3
sg12
S'04538e8875c78fe880da81eab3e04a99328b1d09'
p2108
sg14
g3
sg16
g3
sa(dp2109
g2
S'0.25'
p2110
sg4
S'66a9896d2eaceeb6e648d3582ca4b2a1df600f9a'
p2111
sg6
S'0.378669078'
p2112
sg8
S'0.2'
p2113
sg10
g11
sg12
S'db073b550a4d3354a72468903eba2d3c88620b8f'
p2114
sg14
g3
sg16
S'0.190874066'
p2115
sa(dp2116
g2
S'0.25'
p2117
sg4
S'66a9896d2eaceeb6e648d3582ca4b2a1df600f9a'
p2118
sg6
S'0.303344075'
p2119
sg8
S'0.076923077'
p2120
sg10
g3
sg12
S'5ff4f203895d52277f10970c58724c19277fa65a'
p2121
sg14
g3
sg16
S'0.474330706'
p2122
sa(dp2123
g2
g3
sg4
S'66a9896d2eaceeb6e648d3582ca4b2a1df600f9a'
p2124
sg6
S'0.103087622'
p2125
sg8
S'0.041666667'
p2126
sg10
g3
sg12
S'7beac20d7f5f953cc2269d9433d7bbaa1367a6f4'
p2127
sg14
g3
sg16
S'0.206136966'
p2128
sa(dp2129
g2
S'0.111111111'
p2130
sg4
S'66f7d263cb0cab5333b43c0a01b6c721cb1a1d25'
p2131
sg6
S'0.229755903'
p2132
sg8
g3
sg10
g11
sg12
S'03e526b7096f68b11453f95eaf35400d5ad625bc'
p2133
sg14
S'0.25'
p2134
sg16
S'0.105992131'
p2135
sa(dp2136
g2
g3
sg4
S'66f7d263cb0cab5333b43c0a01b6c721cb1a1d25'
p2137
sg6
S'0.084220049'
p2138
sg8
S'0.055555556'
p2139
sg10
g3
sg12
S'30cb62dd0219301e7234e5ad86c435eedf5cdc92'
p2140
sg14
S'0.2'
p2141
sg16
g3
sa(dp2142
g2
S'0.111111111'
p2143
sg4
S'66f7d263cb0cab5333b43c0a01b6c721cb1a1d25'
p2144
sg6
S'0.323835841'
p2145
sg8
S'0.625'
p2146
sg10
g3
sg12
S'81ed50efc7a2198014f4b7374f86edabad42457e'
p2147
sg14
g11
sg16
g3
sa(dp2148
g2
S'0.111111111'
p2149
sg4
S'66f7d263cb0cab5333b43c0a01b6c721cb1a1d25'
p2150
sg6
S'0.064907238'
p2151
sg8
g3
sg10
g3
sg12
S'7980e1e5faf39a2e12a8112631224ab732c3b75c'
p2152
sg14
S'0.111111111'
p2153
sg16
g3
sa(dp2154
g2
g3
sg4
S'66f7d263cb0cab5333b43c0a01b6c721cb1a1d25'
p2155
sg6
S'0.052295013'
p2156
sg8
S'0.1'
p2157
sg10
g3
sg12
S'61e8bedb00d5b0640d4d25603d93f061d54c84e5'
p2158
sg14
S'0.25'
p2159
sg16
g3
sa(dp2160
g2
g3
sg4
S'6768ee693e6dfe45fd3bdc4da515983927d52d49'
p2161
sg6
S'0.040664229'
p2162
sg8
g3
sg10
g3
sg12
S'3c281de897ede3399b838663b6ec7f5ecfdff251'
p2163
sg14
g3
sg16
g3
sa(dp2164
g2
g3
sg4
S'6768ee693e6dfe45fd3bdc4da515983927d52d49'
p2165
sg6
S'0.022122468'
p2166
sg8
g3
sg10
g3
sg12
S'd08ba6d024e22636e61d759b2201a7cd668782b4'
p2167
sg14
g3
sg16
g3
sa(dp2168
g2
g3
sg4
S'6768ee693e6dfe45fd3bdc4da515983927d52d49'
p2169
sg6
S'0.030562477'
p2170
sg8
g3
sg10
g3
sg12
S'28ede2d7b117ddb38a1d5b42ce70e74e55ee1ad0'
p2171
sg14
g3
sg16
g3
sa(dp2172
g2
g3
sg4
S'6768ee693e6dfe45fd3bdc4da515983927d52d49'
p2173
sg6
S'0.159611932'
p2174
sg8
S'0.032258065'
p2175
sg10
g3
sg12
S'3a40ff57c5a96f6445675f104d434b42eab6aebf'
p2176
sg14
g3
sg16
g3
sa(dp2177
g2
g3
sg4
S'6768ee693e6dfe45fd3bdc4da515983927d52d49'
p2178
sg6
S'0.120901069'
p2179
sg8
S'0.029411765'
p2180
sg10
g3
sg12
S'9e894bc1e05b80e2d37c4e66fd3556dd2535dfbb'
p2181
sg14
g3
sg16
g3
sa(dp2182
g2
S'0.111111111'
p2183
sg4
S'6768ee693e6dfe45fd3bdc4da515983927d52d49'
p2184
sg6
S'0.191665939'
p2185
sg8
S'0.08'
p2186
sg10
g3
sg12
S'bb13eb440c38db3afacad04ae60ec37525890239'
p2187
sg14
g3
sg16
S'0.12735953'
p2188
sa(dp2189
g2
g3
sg4
S'6768ee693e6dfe45fd3bdc4da515983927d52d49'
p2190
sg6
S'0.007578553'
p2191
sg8
g3
sg10
g3
sg12
S'06e3b061e1769065c963e2cf3ce81358c4538b2e'
p2192
sg14
g3
sg16
g3
sa(dp2193
g2
g3
sg4
S'6768ee693e6dfe45fd3bdc4da515983927d52d49'
p2194
sg6
g3
sg8
g3
sg10
g3
sg12
S'475e53e5654b76478ee78d5586b4820ab9afad93'
p2195
sg14
g3
sg16
g3
sa(dp2196
g2
g3
sg4
S'6768ee693e6dfe45fd3bdc4da515983927d52d49'
p2197
sg6
S'0.063278129'
p2198
sg8
g3
sg10
g3
sg12
S'feb93220a5d96f892360fcb63d33a45fa77512cf'
p2199
sg14
g3
sg16
g3
sa(dp2200
g2
g3
sg4
S'723f4317f405a8c09d441cefe31ff719890b678c'
p2201
sg6
S'0.226757868'
p2202
sg8
S'0.166666667'
p2203
sg10
g11
sg12
S'b87976ecb9aed3e57aa374bd848f6fb3bf754e70'
p2204
sg14
g3
sg16
S'0.580332985'
p2205
sa(dp2206
g2
S'0.111111111'
p2207
sg4
S'76c452b8934051aef5e91ea66db21d6749f1086c'
p2208
sg6
S'0.155694769'
p2209
sg8
S'0.09375'
p2210
sg10
g11
sg12
S'291b0b2b273cbb00039f4f246154053b2341a017'
p2211
sg14
g3
sg16
S'0.201993092'
p2212
sa(dp2213
g2
S'0.111111111'
p2214
sg4
S'76c452b8934051aef5e91ea66db21d6749f1086c'
p2215
sg6
S'0.315224378'
p2216
sg8
S'0.034482759'
p2217
sg10
g11
sg12
S'd03c15c3932c37623715de0dd3172441942dd6ac'
p2218
sg14
g3
sg16
S'0.10163067'
p2219
sa(dp2220
g2
S'0.111111111'
p2221
sg4
S'76c452b8934051aef5e91ea66db21d6749f1086c'
p2222
sg6
S'0.194860792'
p2223
sg8
g3
sg10
g3
sg12
S'86b184b20a4fe56ee195bac6fc94945833c09cca'
p2224
sg14
g3
sg16
S'0.201993092'
p2225
sa(dp2226
g2
S'0.111111111'
p2227
sg4
S'76c452b8934051aef5e91ea66db21d6749f1086c'
p2228
sg6
S'0.114099614'
p2229
sg8
g3
sg10
g3
sg12
S'd88bae707eec57d4bedf20a7f5bfc0c49db8a2d7'
p2230
sg14
g3
sg16
S'0.159764209'
p2231
sa(dp2232
g2
S'0.25'
p2233
sg4
S'76c452b8934051aef5e91ea66db21d6749f1086c'
p2234
sg6
S'0.264187043'
p2235
sg8
S'0.068965517'
p2236
sg10
g3
sg12
S'87c927e3df767fb7d890125799c870a1f9144b26'
p2237
sg14
g3
sg16
S'0.159764209'
p2238
sa(dp2239
g2
S'0.111111111'
p2240
sg4
S'76c452b8934051aef5e91ea66db21d6749f1086c'
p2241
sg6
S'0.126985319'
p2242
sg8
S'0.172413793'
p2243
sg10
g3
sg12
S'a43618a02e8d9b9db2e34b2ab766a766bbddc85d'
p2244
sg14
g3
sg16
g3
sa(dp2245
g2
g3
sg4
S'7b95d389bc6affe6a127d53b04bcfd68138f1a1a'
p2246
sg6
S'0.059931497'
p2247
sg8
S'0.136363636'
p2248
sg10
g11
sg12
S'c35722a1f8cc7b8d609990f9ee7e93fe2d3e2ad9'
p2249
sg14
g3
sg16
g3
sa(dp2250
g2
S'0.25'
p2251
sg4
S'7c820b98c10d708e91fc0226ca4700fca8f3d871'
p2252
sg6
S'0.035464242'
p2253
sg8
g3
sg10
g3
sg12
S'754d2456d500091d0531c95a2e0c790c0cc50505'
p2254
sg14
g3
sg16
S'0.344642141'
p2255
sa(dp2256
g2
S'0.111111111'
p2257
sg4
S'7c820b98c10d708e91fc0226ca4700fca8f3d871'
p2258
sg6
S'0.050154065'
p2259
sg8
g3
sg10
g3
sg12
S'63a4878aa2c5125cc75d669222b1a24a405900fc'
p2260
sg14
g3
sg16
g3
sa(dp2261
g2
S'0.25'
p2262
sg4
S'7c820b98c10d708e91fc0226ca4700fca8f3d871'
p2263
sg6
S'0.046120511'
p2264
sg8
g3
sg10
g3
sg12
S'b5e12de7d3f2a66bfcf10a510f9ac80afb3541c1'
p2265
sg14
g3
sg16
g3
sa(dp2266
g2
g3
sg4
S'7c820b98c10d708e91fc0226ca4700fca8f3d871'
p2267
sg6
S'0.060868058'
p2268
sg8
g3
sg10
g3
sg12
S'3c51ef061f6f908e153f38c0446b301ffc1627cb'
p2269
sg14
g3
sg16
g3
sa(dp2270
g2
g3
sg4
S'7c820b98c10d708e91fc0226ca4700fca8f3d871'
p2271
sg6
S'0.055851794'
p2272
sg8
g3
sg10
g3
sg12
S'1b38f6b1c2a3fbf0718f6319f7bbcdfa0e239568'
p2273
sg14
g3
sg16
g3
sa(dp2274
g2
g3
sg4
S'7c820b98c10d708e91fc0226ca4700fca8f3d871'
p2275
sg6
S'0.016943112'
p2276
sg8
g3
sg10
g3
sg12
S'a672f84155defeb684b16651a5f698cc1260ab7f'
p2277
sg14
g3
sg16
g3
sa(dp2278
g2
S'0.111111111'
p2279
sg4
S'7c820b98c10d708e91fc0226ca4700fca8f3d871'
p2280
sg6
S'0.035425586'
p2281
sg8
S'0.142857143'
p2282
sg10
g3
sg12
S'066502368061f8f002095c1fb8146e8b379cd595'
p2283
sg14
g3
sg16
S'0.380872608'
p2284
sa(dp2285
g2
S'0.25'
p2286
sg4
S'7c820b98c10d708e91fc0226ca4700fca8f3d871'
p2287
sg6
S'0.089164847'
p2288
sg8
g3
sg10
g3
sg12
S'686e7cf7801d74f95888af31f784ff288ded083b'
p2289
sg14
g3
sg16
S'0.380872608'
p2290
sa(dp2291
g2
S'0.125'
p2292
sg4
S'8415e713e801c63c3d7e73434e990ffdaabc99c1'
p2293
sg6
S'0.224480366'
p2294
sg8
S'0.090909091'
p2295
sg10
g11
sg12
S'94db635f54d25bdb95edb42185aca93ba53b051b'
p2296
sg14
S'0.5'
p2297
sg16
S'0.190874066'
p2298
sa(dp2299
g2
g3
sg4
S'8f8139b63a2fc0b3ae8413acaef47acd35a356e0'
p2300
sg6
S'0.221122104'
p2301
sg8
S'0.1'
p2302
sg10
g11
sg12
S'5a4450ae8a92d7d34131620531ba5e5cb853148b'
p2303
sg14
g3
sg16
S'0.450268145'
p2304
sa(dp2305
g2
g3
sg4
S'8f8139b63a2fc0b3ae8413acaef47acd35a356e0'
p2306
sg6
S'0.181838774'
p2307
sg8
S'0.090909091'
p2308
sg10
g11
sg12
S'5026d34eb5dd917a416461939ee76c1303055d42'
p2309
sg14
g3
sg16
S'0.336096927'
p2310
sa(dp2311
g2
g3
sg4
S'8f8139b63a2fc0b3ae8413acaef47acd35a356e0'
p2312
sg6
S'0.224309636'
p2313
sg8
S'0.076923077'
p2314
sg10
g11
sg12
S'52b5eab895a2d9ae24ea72ca72782974a52f90c4'
p2315
sg14
g3
sg16
S'0.201993092'
p2316
sa(dp2317
g2
g3
sg4
S'94db635f54d25bdb95edb42185aca93ba53b051b'
p2318
sg6
S'0.337427564'
p2319
sg8
S'0.153846154'
p2320
sg10
g11
sg12
S'8639e396d1cdf07ef206dc1abff07b327f6cdb58'
p2321
sg14
g3
sg16
S'0.185767959'
p2322
sa(dp2323
g2
S'0.125'
p2324
sg4
S'94db635f54d25bdb95edb42185aca93ba53b051b'
p2325
sg6
S'0.072757802'
p2326
sg8
g3
sg10
g11
sg12
S'7cac276a31ffb6a66b3acfed7de8026b835890af'
p2327
sg14
S'0.25'
p2328
sg16
g3
sa(dp2329
g2
g3
sg4
S'94db635f54d25bdb95edb42185aca93ba53b051b'
p2330
sg6
S'0.230509358'
p2331
sg8
S'0.066666667'
p2332
sg10
g11
sg12
S'7f6a72caa44e48c4e5a2c226a5cf45f1c5615530'
p2333
sg14
g3
sg16
S'0.269517613'
p2334
sa(dp2335
g2
g3
sg4
S'94db635f54d25bdb95edb42185aca93ba53b051b'
p2336
sg6
S'0.139921387'
p2337
sg8
S'0.08'
p2338
sg10
g3
sg12
S'7207c31fa99b7e18198e9d43bc54d1ee0547b898'
p2339
sg14
g3
sg16
S'0.135073484'
p2340
sa(dp2341
g2
S'0.111111111'
p2342
sg4
S'996b5cf724a5151b1fb14da2de8544ded7974b50'
p2343
sg6
S'0.03340876'
p2344
sg8
g3
sg10
g3
sg12
S'c890ccf3b33fa8be4eca7ded0c24bcd61ad10e86'
p2345
sg14
g3
sg16
g3
sa(dp2346
g2
S'0.285714286'
p2347
sg4
S'996b5cf724a5151b1fb14da2de8544ded7974b50'
p2348
sg6
S'0.21446705'
p2349
sg8
S'0.131578947'
p2350
sg10
g3
sg12
S'082aa12d63d6196815ae4ebe24c88a3e9521cdd1'
p2351
sg14
g3
sg16
S'0.077808944'
p2352
sa(dp2353
g2
g3
sg4
S'996b5cf724a5151b1fb14da2de8544ded7974b50'
p2354
sg6
S'0.165759518'
p2355
sg8
S'0.105263158'
p2356
sg10
g3
sg12
S'4add8164f2de84223235a6cd8240bdf0fefe2b3f'
p2357
sg14
g3
sg16
g3
sa(dp2358
g2
S'0.111111111'
p2359
sg4
S'9f3e53326eaef63544fbe6644a22949189f80662'
p2360
sg6
S'0.105821251'
p2361
sg8
g3
sg10
g11
sg12
S'1b9eedb53a6ea00cd139f4996c51cdf312e01442'
p2362
sg14
g3
sg16
g3
sa(dp2363
g2
g3
sg4
S'a2c54a729be2e2f46c446cabe70fdb3d38d2a1c6'
p2364
sg6
S'0.094446206'
p2365
sg8
S'0.034482759'
p2366
sg10
g3
sg12
S'0a9c1946ca521804a20b898953c212bad058086d'
p2367
sg14
g3
sg16
S'0.25320945'
p2368
sa(dp2369
g2
S'0.111111111'
p2370
sg4
S'a2c54a729be2e2f46c446cabe70fdb3d38d2a1c6'
p2371
sg6
S'0.146126239'
p2372
sg8
S'0.028571429'
p2373
sg10
g3
sg12
S'02ec888235367184342b9d7295ce99b3da6aea10'
p2374
sg14
g3
sg16
S'0.125366938'
p2375
sa(dp2376
g2
g3
sg4
S'a2c54a729be2e2f46c446cabe70fdb3d38d2a1c6'
p2377
sg6
S'0.123072625'
p2378
sg8
g3
sg10
g3
sg12
S'4c4a95645bb719cb53d668cca3b104e529746377'
p2379
sg14
g3
sg16
S'0.137543605'
p2380
sa(dp2381
g2
g3
sg4
S'a64616e17f55d1874111f55371d7d6f603dfe983'
p2382
sg6
S'0.06180361'
p2383
sg8
S'0.087719298'
p2384
sg10
g11
sg12
S'8bb099df35c835048f1bea9ae26a1f24b5a1ec6d'
p2385
sg14
g3
sg16
S'0.078744603'
p2386
sa(dp2387
g2
g3
sg4
S'a64616e17f55d1874111f55371d7d6f603dfe983'
p2388
sg6
S'0.111315021'
p2389
sg8
S'0.147058824'
p2390
sg10
g3
sg12
S'6091773cdeb12a5f8a1216f61573867613a54bbe'
p2391
sg14
g3
sg16
S'0.201993092'
p2392
sa(dp2393
g2
g3
sg4
S'a64616e17f55d1874111f55371d7d6f603dfe983'
p2394
sg6
S'0.009661317'
p2395
sg8
S'0.064516129'
p2396
sg10
g3
sg12
S'9bb9147bf110c82eafe14a3a21a97ebafebc584b'
p2397
sg14
g3
sg16
g3
sa(dp2398
g2
g3
sg4
S'a64616e17f55d1874111f55371d7d6f603dfe983'
p2399
sg6
S'0.053754747'
p2400
sg8
S'0.045454545'
p2401
sg10
g3
sg12
S'3d0adc6fca3a0669c108958c5d5204e2695ea4db'
p2402
sg14
g3
sg16
S'0.115215543'
p2403
sa(dp2404
g2
g3
sg4
S'a64616e17f55d1874111f55371d7d6f603dfe983'
p2405
sg6
S'0.022666695'
p2406
sg8
S'0.043478261'
p2407
sg10
g3
sg12
S'23f4cd7352a716f11c9eaf009673ddefd0132384'
p2408
sg14
g3
sg16
g3
sa(dp2409
g2
S'0.111111111'
p2410
sg4
S'a64616e17f55d1874111f55371d7d6f603dfe983'
p2411
sg6
S'0.075659876'
p2412
sg8
g3
sg10
g3
sg12
S'4876b9d79886960e034a5d52adcdad640b363c76'
p2413
sg14
g3
sg16
S'0.225764846'
p2414
sa(dp2415
g2
g3
sg4
S'a64616e17f55d1874111f55371d7d6f603dfe983'
p2416
sg6
S'0.095786521'
p2417
sg8
S'0.023809524'
p2418
sg10
g3
sg12
S'63c48b1b375e5e3e4abc4a3a61f81bc524761a08'
p2419
sg14
g3
sg16
S'0.201993092'
p2420
sa(dp2421
g2
g3
sg4
S'a64616e17f55d1874111f55371d7d6f603dfe983'
p2422
sg6
S'0.005832049'
p2423
sg8
g3
sg10
g3
sg12
S'c68b94298e3fddf8e42819e74ee9c6d005f13b20'
p2424
sg14
g3
sg16
g3
sa(dp2425
g2
S'0.111111111'
p2426
sg4
S'a64616e17f55d1874111f55371d7d6f603dfe983'
p2427
sg6
S'0.100496644'
p2428
sg8
S'0.055555556'
p2429
sg10
g3
sg12
S'33f4e91b698a5226955e9e6b62741163c4ffd6c1'
p2430
sg14
g3
sg16
S'0.201993092'
p2431
sa(dp2432
g2
g3
sg4
S'a64616e17f55d1874111f55371d7d6f603dfe983'
p2433
sg6
S'0.089833835'
p2434
sg8
S'0.021276596'
p2435
sg10
g3
sg12
S'76d3d111d24391a2fe153e16b1a4d120d9bb7c3d'
p2436
sg14
g3
sg16
g3
sa(dp2437
g2
g3
sg4
S'a64616e17f55d1874111f55371d7d6f603dfe983'
p2438
sg6
S'0.109175857'
p2439
sg8
g3
sg10
g3
sg12
S'd21f69ebf93689fd75b24ea86c0ccc33ceb62b1a'
p2440
sg14
g3
sg16
S'0.184431917'
p2441
sa(dp2442
g2
g3
sg4
S'a64616e17f55d1874111f55371d7d6f603dfe983'
p2443
sg6
S'0.076581052'
p2444
sg8
g3
sg10
g3
sg12
S'87e79beb7976919a76b912c94ff797126981308c'
p2445
sg14
g3
sg16
g3
sa(dp2446
g2
g3
sg4
S'a64616e17f55d1874111f55371d7d6f603dfe983'
p2447
sg6
S'0.037080432'
p2448
sg8
S'0.03030303'
p2449
sg10
g3
sg12
S'96c0540961cf4929b6dca706b54b278d00a40e20'
p2450
sg14
g3
sg16
g3
sa(dp2451
g2
g3
sg4
S'a64616e17f55d1874111f55371d7d6f603dfe983'
p2452
sg6
S'0.056002898'
p2453
sg8
g3
sg10
g3
sg12
S'53b57ed777738d8f6d632830baeabef7ccc2df1a'
p2454
sg14
g3
sg16
S'0.150640185'
p2455
sa(dp2456
g2
S'0.25'
p2457
sg4
S'a67c03467bcbaa3ef1024a26eb2d127e4c3d22e8'
p2458
sg6
S'0.232233249'
p2459
sg8
S'0.051282051'
p2460
sg10
g11
sg12
S'55c5c21f715def30a04229def84e5f6271059063'
p2461
sg14
S'0.25'
p2462
sg16
S'0.184431917'
p2463
sa(dp2464
g2
S'0.111111111'
p2465
sg4
S'a67c03467bcbaa3ef1024a26eb2d127e4c3d22e8'
p2466
sg6
S'0.181776131'
p2467
sg8
S'0.153846154'
p2468
sg10
g3
sg12
S'2f643f37a09a70e86ae6a3823bc0a505120c52d5'
p2469
sg14
g3
sg16
S'0.184431917'
p2470
sa(dp2471
g2
S'0.111111111'
p2472
sg4
S'a67c03467bcbaa3ef1024a26eb2d127e4c3d22e8'
p2473
sg6
S'0.126041982'
p2474
sg8
S'0.04'
p2475
sg10
g3
sg12
S'2d004e28721f32f3a7c1e35c9da443311af0757b'
p2476
sg14
g3
sg16
S'0.212054963'
p2477
sa(dp2478
g2
g3
sg4
S'b59abcfd7dbed8e284c4237c405f912adb1ad4ea'
p2479
sg6
S'0.138871621'
p2480
sg8
g3
sg10
g11
sg12
S'033b62167e7358c429738092109311af696e9137'
p2481
sg14
g3
sg16
S'0.19431434'
p2482
sa(dp2483
g2
S'0.111111111'
p2484
sg4
S'bb13eb440c38db3afacad04ae60ec37525890239'
p2485
sg6
S'0.124367499'
p2486
sg8
g3
sg10
g11
sg12
S'e9c3da7a4b9d51af6f0081d1c1460e1205c27bad'
p2487
sg14
S'0.230769231'
p2488
sg16
g3
sa(dp2489
g2
g3
sg4
S'bb13eb440c38db3afacad04ae60ec37525890239'
p2490
sg6
S'0.058844631'
p2491
sg8
g3
sg10
g3
sg12
S'b06167d7425d84dbd0695ac87d367cdae15d4c6d'
p2492
sg14
g3
sg16
g3
sa(dp2493
g2
S'0.111111111'
p2494
sg4
S'bb13eb440c38db3afacad04ae60ec37525890239'
p2495
sg6
S'0.06701491'
p2496
sg8
g3
sg10
g3
sg12
S'7adfdd233b8a1f2407edcf862d81d522a5482553'
p2497
sg14
g3
sg16
g3
sa(dp2498
g2
g3
sg4
S'bb13eb440c38db3afacad04ae60ec37525890239'
p2499
sg6
S'0.067449847'
p2500
sg8
g3
sg10
g3
sg12
S'bd70cceb966f1480cf64397ed0b3541ddd1dd0a9'
p2501
sg14
g3
sg16
g3
sa(dp2502
g2
S'0.111111111'
p2503
sg4
S'bb13eb440c38db3afacad04ae60ec37525890239'
p2504
sg6
S'0.079593962'
p2505
sg8
g3
sg10
g3
sg12
S'377617c545f276d1f063eeff15679522bc57f9dc'
p2506
sg14
g3
sg16
g3
sa(dp2507
g2
S'0.111111111'
p2508
sg4
S'bb13eb440c38db3afacad04ae60ec37525890239'
p2509
sg6
S'0.08824088'
p2510
sg8
g3
sg10
g3
sg12
S'95c7d37dfdf10f9c9c78fc3d3af5e85c2974b6d7'
p2511
sg14
S'0.1'
p2512
sg16
g3
sa(dp2513
g2
S'0.25'
p2514
sg4
S'ee7e21dd09949a5a53b39c13fca9cd3d55e2bc50'
p2515
sg6
S'0.221762827'
p2516
sg8
S'0.074074074'
p2517
sg10
g11
sg12
S'2671bf82168234a25fce7950e0527eb03b201e0c'
p2518
sg14
g3
sg16
S'0.144383555'
p2519
sa(dp2520
g2
g3
sg4
S'ee7e21dd09949a5a53b39c13fca9cd3d55e2bc50'
p2521
sg6
S'0.017250263'
p2522
sg8
S'0.019230769'
p2523
sg10
g3
sg12
S'5040bfbcf3cfea2e8d876bbb75877fa73558e120'
p2524
sg14
g3
sg16
g3
sa(dp2525
g2
g3
sg4
S'ee7e21dd09949a5a53b39c13fca9cd3d55e2bc50'
p2526
sg6
S'0.170977116'
p2527
sg8
S'0.029411765'
p2528
sg10
g3
sg12
S'b9eea85e590f6e522e3681b8e45012684c60b0fd'
p2529
sg14
g3
sg16
g3
sa(dp2530
g2
g3
sg4
S'ee7e21dd09949a5a53b39c13fca9cd3d55e2bc50'
p2531
sg6
S'0.187234456'
p2532
sg8
S'0.125'
p2533
sg10
g3
sg12
S'90146f35a26eec06cdd3aa7c5c4a23344a24dca1'
p2534
sg14
g3
sg16
g3
sa.